
MicrocontrollerSystem.elf:     file format elf32-avr

Sections:
Idx Name          Size      VMA       LMA       File off  Algn
  0 .text         00000fb6  00000000  00000000  00000094  2**1
                  CONTENTS, ALLOC, LOAD, READONLY, CODE
  1 .data         00000030  00800060  00000fb6  0000104a  2**0
                  CONTENTS, ALLOC, LOAD, DATA
  2 .bss          0000003c  00800090  00800090  0000107a  2**0
                  ALLOC
  3 .comment      00000030  00000000  00000000  0000107a  2**0
                  CONTENTS, READONLY
  4 .note.gnu.avr.deviceinfo 0000003c  00000000  00000000  000010ac  2**2
                  CONTENTS, READONLY

Disassembly of section .text:

00000000 <__vectors>:
   0:	0c 94 2c 00 	jmp	0x58	; 0x58 <__dtors_end>
   4:	0c 94 54 00 	jmp	0xa8	; 0xa8 <__bad_interrupt>
   8:	0c 94 54 00 	jmp	0xa8	; 0xa8 <__bad_interrupt>
   c:	0c 94 54 00 	jmp	0xa8	; 0xa8 <__bad_interrupt>
  10:	0c 94 54 00 	jmp	0xa8	; 0xa8 <__bad_interrupt>
  14:	0c 94 54 00 	jmp	0xa8	; 0xa8 <__bad_interrupt>
  18:	0c 94 54 00 	jmp	0xa8	; 0xa8 <__bad_interrupt>
  1c:	0c 94 54 00 	jmp	0xa8	; 0xa8 <__bad_interrupt>
  20:	0c 94 54 00 	jmp	0xa8	; 0xa8 <__bad_interrupt>
  24:	0c 94 54 00 	jmp	0xa8	; 0xa8 <__bad_interrupt>
  28:	0c 94 54 00 	jmp	0xa8	; 0xa8 <__bad_interrupt>
  2c:	0c 94 54 00 	jmp	0xa8	; 0xa8 <__bad_interrupt>
  30:	0c 94 54 00 	jmp	0xa8	; 0xa8 <__bad_interrupt>
  34:	0c 94 54 00 	jmp	0xa8	; 0xa8 <__bad_interrupt>
  38:	0c 94 54 00 	jmp	0xa8	; 0xa8 <__bad_interrupt>
  3c:	0c 94 54 00 	jmp	0xa8	; 0xa8 <__bad_interrupt>
  40:	0c 94 ba 05 	jmp	0xb74	; 0xb74 <__vector_16>
  44:	0c 94 54 00 	jmp	0xa8	; 0xa8 <__bad_interrupt>
  48:	0c 94 54 00 	jmp	0xa8	; 0xa8 <__bad_interrupt>
  4c:	0c 94 54 00 	jmp	0xa8	; 0xa8 <__bad_interrupt>
  50:	0c 94 54 00 	jmp	0xa8	; 0xa8 <__bad_interrupt>

00000054 <__ctors_start>:
  54:	04 06       	cpc	r0, r20

00000056 <__ctors_end>:
  56:	13 06       	cpc	r1, r19

00000058 <__dtors_end>:
  58:	11 24       	eor	r1, r1
  5a:	1f be       	out	0x3f, r1	; 63
  5c:	cf e5       	ldi	r28, 0x5F	; 95
  5e:	d8 e0       	ldi	r29, 0x08	; 8
  60:	de bf       	out	0x3e, r29	; 62
  62:	cd bf       	out	0x3d, r28	; 61

00000064 <__do_copy_data>:
  64:	10 e0       	ldi	r17, 0x00	; 0
  66:	a0 e6       	ldi	r26, 0x60	; 96
  68:	b0 e0       	ldi	r27, 0x00	; 0
  6a:	e6 eb       	ldi	r30, 0xB6	; 182
  6c:	ff e0       	ldi	r31, 0x0F	; 15
  6e:	02 c0       	rjmp	.+4      	; 0x74 <__do_copy_data+0x10>
  70:	05 90       	lpm	r0, Z+
  72:	0d 92       	st	X+, r0
  74:	a0 39       	cpi	r26, 0x90	; 144
  76:	b1 07       	cpc	r27, r17
  78:	d9 f7       	brne	.-10     	; 0x70 <__do_copy_data+0xc>

0000007a <__do_clear_bss>:
  7a:	20 e0       	ldi	r18, 0x00	; 0
  7c:	a0 e9       	ldi	r26, 0x90	; 144
  7e:	b0 e0       	ldi	r27, 0x00	; 0
  80:	01 c0       	rjmp	.+2      	; 0x84 <.do_clear_bss_start>

00000082 <.do_clear_bss_loop>:
  82:	1d 92       	st	X+, r1

00000084 <.do_clear_bss_start>:
  84:	ac 3c       	cpi	r26, 0xCC	; 204
  86:	b2 07       	cpc	r27, r18
  88:	e1 f7       	brne	.-8      	; 0x82 <.do_clear_bss_loop>

0000008a <__do_global_ctors>:
  8a:	10 e0       	ldi	r17, 0x00	; 0
  8c:	cb e2       	ldi	r28, 0x2B	; 43
  8e:	d0 e0       	ldi	r29, 0x00	; 0
  90:	04 c0       	rjmp	.+8      	; 0x9a <__do_global_ctors+0x10>
  92:	21 97       	sbiw	r28, 0x01	; 1
  94:	fe 01       	movw	r30, r28
  96:	0e 94 43 06 	call	0xc86	; 0xc86 <__tablejump2__>
  9a:	ca 32       	cpi	r28, 0x2A	; 42
  9c:	d1 07       	cpc	r29, r17
  9e:	c9 f7       	brne	.-14     	; 0x92 <__do_global_ctors+0x8>
  a0:	0e 94 7e 05 	call	0xafc	; 0xafc <main>
  a4:	0c 94 ce 07 	jmp	0xf9c	; 0xf9c <__do_global_dtors>

000000a8 <__bad_interrupt>:
  a8:	0c 94 00 00 	jmp	0	; 0x0 <__vectors>

000000ac <_ZN9ArrayListIiE3getEs>:
  ac:	66 0f       	add	r22, r22
  ae:	77 1f       	adc	r23, r23
  b0:	fc 01       	movw	r30, r24
  b2:	84 81       	ldd	r24, Z+4	; 0x04
  b4:	95 81       	ldd	r25, Z+5	; 0x05
  b6:	fc 01       	movw	r30, r24
  b8:	e6 0f       	add	r30, r22
  ba:	f7 1f       	adc	r31, r23
  bc:	80 81       	ld	r24, Z
  be:	91 81       	ldd	r25, Z+1	; 0x01
  c0:	08 95       	ret

000000c2 <_ZN9ArrayListIiE3setEis>:
  c2:	44 0f       	add	r20, r20
  c4:	55 1f       	adc	r21, r21
  c6:	fc 01       	movw	r30, r24
  c8:	84 81       	ldd	r24, Z+4	; 0x04
  ca:	95 81       	ldd	r25, Z+5	; 0x05
  cc:	fc 01       	movw	r30, r24
  ce:	e4 0f       	add	r30, r20
  d0:	f5 1f       	adc	r31, r21
  d2:	71 83       	std	Z+1, r23	; 0x01
  d4:	60 83       	st	Z, r22
  d6:	08 95       	ret

000000d8 <_ZN9ArrayListIiEC1Es>:
  d8:	0f 93       	push	r16
  da:	1f 93       	push	r17
  dc:	cf 93       	push	r28
  de:	df 93       	push	r29
  e0:	ec 01       	movw	r28, r24
  e2:	8b 01       	movw	r16, r22
  e4:	82 e7       	ldi	r24, 0x72	; 114
  e6:	90 e0       	ldi	r25, 0x00	; 0
  e8:	99 83       	std	Y+1, r25	; 0x01
  ea:	88 83       	st	Y, r24
  ec:	62 e0       	ldi	r22, 0x02	; 2
  ee:	70 e0       	ldi	r23, 0x00	; 0
  f0:	c8 01       	movw	r24, r16
  f2:	0e 94 49 06 	call	0xc92	; 0xc92 <calloc>
  f6:	9d 83       	std	Y+5, r25	; 0x05
  f8:	8c 83       	std	Y+4, r24	; 0x04
  fa:	1b 83       	std	Y+3, r17	; 0x03
  fc:	0a 83       	std	Y+2, r16	; 0x02
  fe:	df 91       	pop	r29
 100:	cf 91       	pop	r28
 102:	1f 91       	pop	r17
 104:	0f 91       	pop	r16
 106:	08 95       	ret

00000108 <_ZN9ArrayListIiED1Ev>:
 108:	0c 94 fa 06 	jmp	0xdf4	; 0xdf4 <free>

0000010c <_ZN10QueueArrayIiE7enqueueEi>:
 10c:	fc 01       	movw	r30, r24
 10e:	40 85       	ldd	r20, Z+8	; 0x08
 110:	51 85       	ldd	r21, Z+9	; 0x09
 112:	9a 01       	movw	r18, r20
 114:	2f 5f       	subi	r18, 0xFF	; 255
 116:	3f 4f       	sbci	r19, 0xFF	; 255
 118:	31 87       	std	Z+9, r19	; 0x09
 11a:	20 87       	std	Z+8, r18	; 0x08
 11c:	0c 94 61 00 	jmp	0xc2	; 0xc2 <_ZN9ArrayListIiE3setEis>

00000120 <_ZN10QueueArrayIiE7getSizeEv>:
 120:	fc 01       	movw	r30, r24
 122:	46 81       	ldd	r20, Z+6	; 0x06
 124:	57 81       	ldd	r21, Z+7	; 0x07
 126:	20 85       	ldd	r18, Z+8	; 0x08
 128:	31 85       	ldd	r19, Z+9	; 0x09
 12a:	24 17       	cp	r18, r20
 12c:	35 07       	cpc	r19, r21
 12e:	24 f0       	brlt	.+8      	; 0x138 <_ZN10QueueArrayIiE7getSizeEv+0x18>
 130:	c9 01       	movw	r24, r18
 132:	84 1b       	sub	r24, r20
 134:	95 0b       	sbc	r25, r21
 136:	08 95       	ret
 138:	ca 01       	movw	r24, r20
 13a:	82 1b       	sub	r24, r18
 13c:	93 0b       	sbc	r25, r19
 13e:	42 81       	ldd	r20, Z+2	; 0x02
 140:	53 81       	ldd	r21, Z+3	; 0x03
 142:	84 0f       	add	r24, r20
 144:	95 1f       	adc	r25, r21
 146:	08 95       	ret

00000148 <_ZN10QueueArrayIiE7dequeueEv>:
 148:	cf 93       	push	r28
 14a:	df 93       	push	r29
 14c:	ec 01       	movw	r28, r24
 14e:	0e 94 90 00 	call	0x120	; 0x120 <_ZN10QueueArrayIiE7getSizeEv>
 152:	89 2b       	or	r24, r25
 154:	59 f0       	breq	.+22     	; 0x16c <_ZN10QueueArrayIiE7dequeueEv+0x24>
 156:	6e 81       	ldd	r22, Y+6	; 0x06
 158:	7f 81       	ldd	r23, Y+7	; 0x07
 15a:	cb 01       	movw	r24, r22
 15c:	01 96       	adiw	r24, 0x01	; 1
 15e:	9f 83       	std	Y+7, r25	; 0x07
 160:	8e 83       	std	Y+6, r24	; 0x06
 162:	ce 01       	movw	r24, r28
 164:	df 91       	pop	r29
 166:	cf 91       	pop	r28
 168:	0c 94 56 00 	jmp	0xac	; 0xac <_ZN9ArrayListIiE3getEs>
 16c:	80 e0       	ldi	r24, 0x00	; 0
 16e:	90 e0       	ldi	r25, 0x00	; 0
 170:	df 91       	pop	r29
 172:	cf 91       	pop	r28
 174:	08 95       	ret

00000176 <_ZN10QueueArrayIiEC1Ev>:
 176:	cf 93       	push	r28
 178:	df 93       	push	r29
 17a:	ec 01       	movw	r28, r24
 17c:	6a e0       	ldi	r22, 0x0A	; 10
 17e:	70 e0       	ldi	r23, 0x00	; 0
 180:	0e 94 6c 00 	call	0xd8	; 0xd8 <_ZN9ArrayListIiEC1Es>
 184:	8a e7       	ldi	r24, 0x7A	; 122
 186:	90 e0       	ldi	r25, 0x00	; 0
 188:	99 83       	std	Y+1, r25	; 0x01
 18a:	88 83       	st	Y, r24
 18c:	1f 82       	std	Y+7, r1	; 0x07
 18e:	1e 82       	std	Y+6, r1	; 0x06
 190:	19 86       	std	Y+9, r1	; 0x09
 192:	18 86       	std	Y+8, r1	; 0x08
 194:	df 91       	pop	r29
 196:	cf 91       	pop	r28
 198:	08 95       	ret

0000019a <_ZN7atmicro13Accelerometer11registerADCERNS_11AnalogInputE>:
 19a:	fc 01       	movw	r30, r24
 19c:	db 01       	movw	r26, r22
 19e:	14 96       	adiw	r26, 0x04	; 4
 1a0:	9c 91       	ld	r25, X
 1a2:	99 23       	and	r25, r25
 1a4:	39 f0       	breq	.+14     	; 0x1b4 <_ZN7atmicro13Accelerometer11registerADCERNS_11AnalogInputE+0x1a>
 1a6:	91 30       	cpi	r25, 0x01	; 1
 1a8:	41 f0       	breq	.+16     	; 0x1ba <_ZN7atmicro13Accelerometer11registerADCERNS_11AnalogInputE+0x20>
 1aa:	92 30       	cpi	r25, 0x02	; 2
 1ac:	81 f4       	brne	.+32     	; 0x1ce <_ZN7atmicro13Accelerometer11registerADCERNS_11AnalogInputE+0x34>
 1ae:	22 e0       	ldi	r18, 0x02	; 2
 1b0:	30 e0       	ldi	r19, 0x00	; 0
 1b2:	05 c0       	rjmp	.+10     	; 0x1be <_ZN7atmicro13Accelerometer11registerADCERNS_11AnalogInputE+0x24>
 1b4:	20 e0       	ldi	r18, 0x00	; 0
 1b6:	30 e0       	ldi	r19, 0x00	; 0
 1b8:	02 c0       	rjmp	.+4      	; 0x1be <_ZN7atmicro13Accelerometer11registerADCERNS_11AnalogInputE+0x24>
 1ba:	21 e0       	ldi	r18, 0x01	; 1
 1bc:	30 e0       	ldi	r19, 0x00	; 0
 1be:	2d 5f       	subi	r18, 0xFD	; 253
 1c0:	3f 4f       	sbci	r19, 0xFF	; 255
 1c2:	22 0f       	add	r18, r18
 1c4:	33 1f       	adc	r19, r19
 1c6:	e2 0f       	add	r30, r18
 1c8:	f3 1f       	adc	r31, r19
 1ca:	71 83       	std	Z+1, r23	; 0x01
 1cc:	60 83       	st	Z, r22
 1ce:	08 95       	ret

000001d0 <_ZN7atmicro13Accelerometer8clearADCEv>:
 1d0:	fc 01       	movw	r30, r24
 1d2:	17 82       	std	Z+7, r1	; 0x07
 1d4:	16 82       	std	Z+6, r1	; 0x06
 1d6:	11 86       	std	Z+9, r1	; 0x09
 1d8:	10 86       	std	Z+8, r1	; 0x08
 1da:	13 86       	std	Z+11, r1	; 0x0b
 1dc:	12 86       	std	Z+10, r1	; 0x0a
 1de:	36 98       	cbi	0x06, 6	; 6
 1e0:	08 95       	ret

000001e2 <_ZN7atmicro13Accelerometer10processADCEv>:
 1e2:	af 92       	push	r10
 1e4:	bf 92       	push	r11
 1e6:	cf 92       	push	r12
 1e8:	df 92       	push	r13
 1ea:	ef 92       	push	r14
 1ec:	ff 92       	push	r15
 1ee:	0f 93       	push	r16
 1f0:	1f 93       	push	r17
 1f2:	cf 93       	push	r28
 1f4:	df 93       	push	r29
 1f6:	ec 01       	movw	r28, r24
 1f8:	7c 01       	movw	r14, r24
 1fa:	86 e0       	ldi	r24, 0x06	; 6
 1fc:	e8 0e       	add	r14, r24
 1fe:	f1 1c       	adc	r15, r1
 200:	00 e0       	ldi	r16, 0x00	; 0
 202:	10 e0       	ldi	r17, 0x00	; 0
 204:	f7 01       	movw	r30, r14
 206:	81 91       	ld	r24, Z+
 208:	91 91       	ld	r25, Z+
 20a:	7f 01       	movw	r14, r30
 20c:	0e 94 30 02 	call	0x460	; 0x460 <_ZN7atmicro11AnalogInput6isLiveEv>
 210:	88 23       	and	r24, r24
 212:	41 f1       	breq	.+80     	; 0x264 <_ZN7atmicro13Accelerometer10processADCEv+0x82>
 214:	f8 01       	movw	r30, r16
 216:	33 96       	adiw	r30, 0x03	; 3
 218:	ee 0f       	add	r30, r30
 21a:	ff 1f       	adc	r31, r31
 21c:	ec 0f       	add	r30, r28
 21e:	fd 1f       	adc	r31, r29
 220:	80 81       	ld	r24, Z
 222:	91 81       	ldd	r25, Z+1	; 0x01
 224:	0e 94 80 02 	call	0x500	; 0x500 <_ZN7atmicro11AnalogInput7processEv>
 228:	21 e0       	ldi	r18, 0x01	; 1
 22a:	30 e0       	ldi	r19, 0x00	; 0
 22c:	43 e0       	ldi	r20, 0x03	; 3
 22e:	e4 2e       	mov	r14, r20
 230:	f1 2c       	mov	r15, r1
 232:	c9 01       	movw	r24, r18
 234:	80 0f       	add	r24, r16
 236:	91 1f       	adc	r25, r17
 238:	b7 01       	movw	r22, r14
 23a:	0e 94 2f 06 	call	0xc5e	; 0xc5e <__divmodhi4>
 23e:	fc 01       	movw	r30, r24
 240:	33 96       	adiw	r30, 0x03	; 3
 242:	ee 0f       	add	r30, r30
 244:	ff 1f       	adc	r31, r31
 246:	ec 0f       	add	r30, r28
 248:	fd 1f       	adc	r31, r29
 24a:	80 81       	ld	r24, Z
 24c:	91 81       	ldd	r25, Z+1	; 0x01
 24e:	00 97       	sbiw	r24, 0x00	; 0
 250:	19 f0       	breq	.+6      	; 0x258 <_ZN7atmicro13Accelerometer10processADCEv+0x76>
 252:	0e 94 5e 02 	call	0x4bc	; 0x4bc <_ZN7atmicro11AnalogInput15startConversionEv>
 256:	0b c0       	rjmp	.+22     	; 0x26e <_ZN7atmicro13Accelerometer10processADCEv+0x8c>
 258:	2f 5f       	subi	r18, 0xFF	; 255
 25a:	3f 4f       	sbci	r19, 0xFF	; 255
 25c:	24 30       	cpi	r18, 0x04	; 4
 25e:	31 05       	cpc	r19, r1
 260:	41 f7       	brne	.-48     	; 0x232 <_ZN7atmicro13Accelerometer10processADCEv+0x50>
 262:	05 c0       	rjmp	.+10     	; 0x26e <_ZN7atmicro13Accelerometer10processADCEv+0x8c>
 264:	0f 5f       	subi	r16, 0xFF	; 255
 266:	1f 4f       	sbci	r17, 0xFF	; 255
 268:	03 30       	cpi	r16, 0x03	; 3
 26a:	11 05       	cpc	r17, r1
 26c:	59 f6       	brne	.-106    	; 0x204 <_ZN7atmicro13Accelerometer10processADCEv+0x22>
 26e:	5e 01       	movw	r10, r28
 270:	fc e0       	ldi	r31, 0x0C	; 12
 272:	af 0e       	add	r10, r31
 274:	b1 1c       	adc	r11, r1
 276:	c5 01       	movw	r24, r10
 278:	0e 94 a4 00 	call	0x148	; 0x148 <_ZN10QueueArrayIiE7dequeueEv>
 27c:	0a e0       	ldi	r16, 0x0A	; 10
 27e:	10 e0       	ldi	r17, 0x00	; 0
 280:	b8 01       	movw	r22, r16
 282:	0e 94 2f 06 	call	0xc5e	; 0xc5e <__divmodhi4>
 286:	88 81       	ld	r24, Y
 288:	99 81       	ldd	r25, Y+1	; 0x01
 28a:	86 1b       	sub	r24, r22
 28c:	97 0b       	sbc	r25, r23
 28e:	99 83       	std	Y+1, r25	; 0x01
 290:	88 83       	st	Y, r24
 292:	6e 01       	movw	r12, r28
 294:	86 e1       	ldi	r24, 0x16	; 22
 296:	c8 0e       	add	r12, r24
 298:	d1 1c       	adc	r13, r1
 29a:	c6 01       	movw	r24, r12
 29c:	0e 94 a4 00 	call	0x148	; 0x148 <_ZN10QueueArrayIiE7dequeueEv>
 2a0:	b8 01       	movw	r22, r16
 2a2:	0e 94 2f 06 	call	0xc5e	; 0xc5e <__divmodhi4>
 2a6:	8a 81       	ldd	r24, Y+2	; 0x02
 2a8:	9b 81       	ldd	r25, Y+3	; 0x03
 2aa:	86 1b       	sub	r24, r22
 2ac:	97 0b       	sbc	r25, r23
 2ae:	9b 83       	std	Y+3, r25	; 0x03
 2b0:	8a 83       	std	Y+2, r24	; 0x02
 2b2:	7e 01       	movw	r14, r28
 2b4:	e0 e2       	ldi	r30, 0x20	; 32
 2b6:	ee 0e       	add	r14, r30
 2b8:	f1 1c       	adc	r15, r1
 2ba:	c7 01       	movw	r24, r14
 2bc:	0e 94 a4 00 	call	0x148	; 0x148 <_ZN10QueueArrayIiE7dequeueEv>
 2c0:	b8 01       	movw	r22, r16
 2c2:	0e 94 2f 06 	call	0xc5e	; 0xc5e <__divmodhi4>
 2c6:	2c 81       	ldd	r18, Y+4	; 0x04
 2c8:	3d 81       	ldd	r19, Y+5	; 0x05
 2ca:	26 1b       	sub	r18, r22
 2cc:	37 0b       	sbc	r19, r23
 2ce:	ee 81       	ldd	r30, Y+6	; 0x06
 2d0:	ff 81       	ldd	r31, Y+7	; 0x07
 2d2:	02 80       	ldd	r0, Z+2	; 0x02
 2d4:	f3 81       	ldd	r31, Z+3	; 0x03
 2d6:	e0 2d       	mov	r30, r0
 2d8:	cf 01       	movw	r24, r30
 2da:	b8 01       	movw	r22, r16
 2dc:	0e 94 1b 06 	call	0xc36	; 0xc36 <__udivmodhi4>
 2e0:	88 81       	ld	r24, Y
 2e2:	99 81       	ldd	r25, Y+1	; 0x01
 2e4:	68 0f       	add	r22, r24
 2e6:	79 1f       	adc	r23, r25
 2e8:	79 83       	std	Y+1, r23	; 0x01
 2ea:	68 83       	st	Y, r22
 2ec:	a8 85       	ldd	r26, Y+8	; 0x08
 2ee:	b9 85       	ldd	r27, Y+9	; 0x09
 2f0:	12 96       	adiw	r26, 0x02	; 2
 2f2:	8d 91       	ld	r24, X+
 2f4:	9c 91       	ld	r25, X
 2f6:	13 97       	sbiw	r26, 0x03	; 3
 2f8:	b8 01       	movw	r22, r16
 2fa:	0e 94 1b 06 	call	0xc36	; 0xc36 <__udivmodhi4>
 2fe:	8a 81       	ldd	r24, Y+2	; 0x02
 300:	9b 81       	ldd	r25, Y+3	; 0x03
 302:	68 0f       	add	r22, r24
 304:	79 1f       	adc	r23, r25
 306:	7b 83       	std	Y+3, r23	; 0x03
 308:	6a 83       	std	Y+2, r22	; 0x02
 30a:	aa 85       	ldd	r26, Y+10	; 0x0a
 30c:	bb 85       	ldd	r27, Y+11	; 0x0b
 30e:	12 96       	adiw	r26, 0x02	; 2
 310:	8d 91       	ld	r24, X+
 312:	9c 91       	ld	r25, X
 314:	13 97       	sbiw	r26, 0x03	; 3
 316:	b8 01       	movw	r22, r16
 318:	0e 94 1b 06 	call	0xc36	; 0xc36 <__udivmodhi4>
 31c:	26 0f       	add	r18, r22
 31e:	37 1f       	adc	r19, r23
 320:	3d 83       	std	Y+5, r19	; 0x05
 322:	2c 83       	std	Y+4, r18	; 0x04
 324:	bf 01       	movw	r22, r30
 326:	c5 01       	movw	r24, r10
 328:	0e 94 86 00 	call	0x10c	; 0x10c <_ZN10QueueArrayIiE7enqueueEi>
 32c:	e8 85       	ldd	r30, Y+8	; 0x08
 32e:	f9 85       	ldd	r31, Y+9	; 0x09
 330:	62 81       	ldd	r22, Z+2	; 0x02
 332:	73 81       	ldd	r23, Z+3	; 0x03
 334:	c6 01       	movw	r24, r12
 336:	0e 94 86 00 	call	0x10c	; 0x10c <_ZN10QueueArrayIiE7enqueueEi>
 33a:	ea 85       	ldd	r30, Y+10	; 0x0a
 33c:	fb 85       	ldd	r31, Y+11	; 0x0b
 33e:	62 81       	ldd	r22, Z+2	; 0x02
 340:	73 81       	ldd	r23, Z+3	; 0x03
 342:	c7 01       	movw	r24, r14
 344:	df 91       	pop	r29
 346:	cf 91       	pop	r28
 348:	1f 91       	pop	r17
 34a:	0f 91       	pop	r16
 34c:	ff 90       	pop	r15
 34e:	ef 90       	pop	r14
 350:	df 90       	pop	r13
 352:	cf 90       	pop	r12
 354:	bf 90       	pop	r11
 356:	af 90       	pop	r10
 358:	0c 94 86 00 	jmp	0x10c	; 0x10c <_ZN10QueueArrayIiE7enqueueEi>

0000035c <_ZN7atmicro13Accelerometer8startADCEv>:
 35c:	fc 01       	movw	r30, r24
 35e:	86 81       	ldd	r24, Z+6	; 0x06
 360:	97 81       	ldd	r25, Z+7	; 0x07
 362:	00 97       	sbiw	r24, 0x00	; 0
 364:	41 f4       	brne	.+16     	; 0x376 <_ZN7atmicro13Accelerometer8startADCEv+0x1a>
 366:	80 85       	ldd	r24, Z+8	; 0x08
 368:	91 85       	ldd	r25, Z+9	; 0x09
 36a:	00 97       	sbiw	r24, 0x00	; 0
 36c:	21 f4       	brne	.+8      	; 0x376 <_ZN7atmicro13Accelerometer8startADCEv+0x1a>
 36e:	82 85       	ldd	r24, Z+10	; 0x0a
 370:	93 85       	ldd	r25, Z+11	; 0x0b
 372:	00 97       	sbiw	r24, 0x00	; 0
 374:	11 f0       	breq	.+4      	; 0x37a <_ZN7atmicro13Accelerometer8startADCEv+0x1e>
 376:	0c 94 5e 02 	jmp	0x4bc	; 0x4bc <_ZN7atmicro11AnalogInput15startConversionEv>
 37a:	08 95       	ret

0000037c <_ZN7atmicro13Accelerometer7stopADCEv>:
 37c:	36 98       	cbi	0x06, 6	; 6
 37e:	08 95       	ret

00000380 <_ZN7atmicro13AccelerometerC1Ev>:
 380:	cf 92       	push	r12
 382:	df 92       	push	r13
 384:	ef 92       	push	r14
 386:	ff 92       	push	r15
 388:	0f 93       	push	r16
 38a:	1f 93       	push	r17
 38c:	cf 93       	push	r28
 38e:	df 93       	push	r29
 390:	ec 01       	movw	r28, r24
 392:	19 82       	std	Y+1, r1	; 0x01
 394:	18 82       	st	Y, r1
 396:	1b 82       	std	Y+3, r1	; 0x03
 398:	1a 82       	std	Y+2, r1	; 0x02
 39a:	1d 82       	std	Y+5, r1	; 0x05
 39c:	1c 82       	std	Y+4, r1	; 0x04
 39e:	6c 01       	movw	r12, r24
 3a0:	8c e0       	ldi	r24, 0x0C	; 12
 3a2:	c8 0e       	add	r12, r24
 3a4:	d1 1c       	adc	r13, r1
 3a6:	c6 01       	movw	r24, r12
 3a8:	0e 94 bb 00 	call	0x176	; 0x176 <_ZN10QueueArrayIiEC1Ev>
 3ac:	7e 01       	movw	r14, r28
 3ae:	86 e1       	ldi	r24, 0x16	; 22
 3b0:	e8 0e       	add	r14, r24
 3b2:	f1 1c       	adc	r15, r1
 3b4:	c7 01       	movw	r24, r14
 3b6:	0e 94 bb 00 	call	0x176	; 0x176 <_ZN10QueueArrayIiEC1Ev>
 3ba:	8e 01       	movw	r16, r28
 3bc:	00 5e       	subi	r16, 0xE0	; 224
 3be:	1f 4f       	sbci	r17, 0xFF	; 255
 3c0:	c8 01       	movw	r24, r16
 3c2:	0e 94 bb 00 	call	0x176	; 0x176 <_ZN10QueueArrayIiEC1Ev>
 3c6:	ce 01       	movw	r24, r28
 3c8:	0e 94 e8 00 	call	0x1d0	; 0x1d0 <_ZN7atmicro13Accelerometer8clearADCEv>
 3cc:	ce 01       	movw	r24, r28
 3ce:	0e 94 be 01 	call	0x37c	; 0x37c <_ZN7atmicro13Accelerometer7stopADCEv>
 3d2:	ca e0       	ldi	r28, 0x0A	; 10
 3d4:	d0 e0       	ldi	r29, 0x00	; 0
 3d6:	60 e0       	ldi	r22, 0x00	; 0
 3d8:	70 e0       	ldi	r23, 0x00	; 0
 3da:	c6 01       	movw	r24, r12
 3dc:	0e 94 86 00 	call	0x10c	; 0x10c <_ZN10QueueArrayIiE7enqueueEi>
 3e0:	60 e0       	ldi	r22, 0x00	; 0
 3e2:	70 e0       	ldi	r23, 0x00	; 0
 3e4:	c7 01       	movw	r24, r14
 3e6:	0e 94 86 00 	call	0x10c	; 0x10c <_ZN10QueueArrayIiE7enqueueEi>
 3ea:	60 e0       	ldi	r22, 0x00	; 0
 3ec:	70 e0       	ldi	r23, 0x00	; 0
 3ee:	c8 01       	movw	r24, r16
 3f0:	0e 94 86 00 	call	0x10c	; 0x10c <_ZN10QueueArrayIiE7enqueueEi>
 3f4:	21 97       	sbiw	r28, 0x01	; 1
 3f6:	79 f7       	brne	.-34     	; 0x3d6 <_ZN7atmicro13AccelerometerC1Ev+0x56>
 3f8:	df 91       	pop	r29
 3fa:	cf 91       	pop	r28
 3fc:	1f 91       	pop	r17
 3fe:	0f 91       	pop	r16
 400:	ff 90       	pop	r15
 402:	ef 90       	pop	r14
 404:	df 90       	pop	r13
 406:	cf 90       	pop	r12
 408:	08 95       	ret

0000040a <_ZN7atmicro13AccelerometerD1Ev>:
 40a:	0f 93       	push	r16
 40c:	1f 93       	push	r17
 40e:	cf 93       	push	r28
 410:	df 93       	push	r29
 412:	ec 01       	movw	r28, r24
 414:	0e 94 be 01 	call	0x37c	; 0x37c <_ZN7atmicro13Accelerometer7stopADCEv>
 418:	ce 01       	movw	r24, r28
 41a:	0e 94 e8 00 	call	0x1d0	; 0x1d0 <_ZN7atmicro13Accelerometer8clearADCEv>
 41e:	0a e7       	ldi	r16, 0x7A	; 122
 420:	10 e0       	ldi	r17, 0x00	; 0
 422:	19 a3       	std	Y+33, r17	; 0x21
 424:	08 a3       	std	Y+32, r16	; 0x20
 426:	ce 01       	movw	r24, r28
 428:	80 96       	adiw	r24, 0x20	; 32
 42a:	0e 94 84 00 	call	0x108	; 0x108 <_ZN9ArrayListIiED1Ev>
 42e:	1f 8b       	std	Y+23, r17	; 0x17
 430:	0e 8b       	std	Y+22, r16	; 0x16
 432:	ce 01       	movw	r24, r28
 434:	46 96       	adiw	r24, 0x16	; 22
 436:	0e 94 84 00 	call	0x108	; 0x108 <_ZN9ArrayListIiED1Ev>
 43a:	1d 87       	std	Y+13, r17	; 0x0d
 43c:	0c 87       	std	Y+12, r16	; 0x0c
 43e:	ce 01       	movw	r24, r28
 440:	0c 96       	adiw	r24, 0x0c	; 12
 442:	df 91       	pop	r29
 444:	cf 91       	pop	r28
 446:	1f 91       	pop	r17
 448:	0f 91       	pop	r16
 44a:	0c 94 84 00 	jmp	0x108	; 0x108 <_ZN9ArrayListIiED1Ev>

0000044e <_ZN7atmicro11AnalogInput10initializeEv>:
 44e:	27 b1       	in	r18, 0x07	; 7
 450:	20 7e       	andi	r18, 0xE0	; 224
 452:	27 b9       	out	0x07, r18	; 7
 454:	27 b1       	in	r18, 0x07	; 7
 456:	fc 01       	movw	r30, r24
 458:	84 81       	ldd	r24, Z+4	; 0x04
 45a:	82 2b       	or	r24, r18
 45c:	87 b9       	out	0x07, r24	; 7
 45e:	08 95       	ret

00000460 <_ZN7atmicro11AnalogInput6isLiveEv>:
 460:	27 b1       	in	r18, 0x07	; 7
 462:	2f 71       	andi	r18, 0x1F	; 31
 464:	30 e0       	ldi	r19, 0x00	; 0
 466:	fc 01       	movw	r30, r24
 468:	44 81       	ldd	r20, Z+4	; 0x04
 46a:	50 e0       	ldi	r21, 0x00	; 0
 46c:	81 e0       	ldi	r24, 0x01	; 1
 46e:	24 17       	cp	r18, r20
 470:	35 07       	cpc	r19, r21
 472:	09 f0       	breq	.+2      	; 0x476 <_ZN7atmicro11AnalogInput6isLiveEv+0x16>
 474:	80 e0       	ldi	r24, 0x00	; 0
 476:	08 95       	ret

00000478 <_ZN7atmicro11AnalogInput5gInitENS_7ADCconf4VREFENS1_4ADPSE>:
 478:	97 b1       	in	r25, 0x07	; 7
 47a:	9f 73       	andi	r25, 0x3F	; 63
 47c:	97 b9       	out	0x07, r25	; 7
 47e:	96 b1       	in	r25, 0x06	; 6
 480:	98 7f       	andi	r25, 0xF8	; 248
 482:	96 b9       	out	0x06, r25	; 6
 484:	96 b1       	in	r25, 0x06	; 6
 486:	69 2b       	or	r22, r25
 488:	66 b9       	out	0x06, r22	; 6
 48a:	27 b1       	in	r18, 0x07	; 7
 48c:	30 e4       	ldi	r19, 0x40	; 64
 48e:	83 9f       	mul	r24, r19
 490:	c0 01       	movw	r24, r0
 492:	11 24       	eor	r1, r1
 494:	82 2b       	or	r24, r18
 496:	87 b9       	out	0x07, r24	; 7
 498:	33 9a       	sbi	0x06, 3	; 6
 49a:	37 9a       	sbi	0x06, 7	; 6
 49c:	78 94       	sei
 49e:	08 95       	ret

000004a0 <_ZN7atmicro11AnalogInputC1ENS_10ADCchannelE>:
 4a0:	fc 01       	movw	r30, r24
 4a2:	82 e8       	ldi	r24, 0x82	; 130
 4a4:	90 e0       	ldi	r25, 0x00	; 0
 4a6:	91 83       	std	Z+1, r25	; 0x01
 4a8:	80 83       	st	Z, r24
 4aa:	16 82       	std	Z+6, r1	; 0x06
 4ac:	15 82       	std	Z+5, r1	; 0x05
 4ae:	64 83       	std	Z+4, r22	; 0x04
 4b0:	13 82       	std	Z+3, r1	; 0x03
 4b2:	12 82       	std	Z+2, r1	; 0x02
 4b4:	64 e0       	ldi	r22, 0x04	; 4
 4b6:	83 e0       	ldi	r24, 0x03	; 3
 4b8:	0c 94 3c 02 	jmp	0x478	; 0x478 <_ZN7atmicro11AnalogInput5gInitENS_7ADCconf4VREFENS1_4ADPSE>

000004bc <_ZN7atmicro11AnalogInput15startConversionEv>:
 4bc:	dc 01       	movw	r26, r24
 4be:	ed 91       	ld	r30, X+
 4c0:	fc 91       	ld	r31, X
 4c2:	01 90       	ld	r0, Z+
 4c4:	f0 81       	ld	r31, Z
 4c6:	e0 2d       	mov	r30, r0
 4c8:	09 95       	icall
 4ca:	36 9a       	sbi	0x06, 6	; 6
 4cc:	08 95       	ret

000004ce <_ZN7atmicro11AnalogInput14stopConversionEv>:
 4ce:	36 98       	cbi	0x06, 6	; 6
 4d0:	08 95       	ret

000004d2 <_ZN7atmicro11AnalogInputD1Ev>:
 4d2:	cf 93       	push	r28
 4d4:	df 93       	push	r29
 4d6:	ec 01       	movw	r28, r24
 4d8:	82 e8       	ldi	r24, 0x82	; 130
 4da:	90 e0       	ldi	r25, 0x00	; 0
 4dc:	99 83       	std	Y+1, r25	; 0x01
 4de:	88 83       	st	Y, r24
 4e0:	ce 01       	movw	r24, r28
 4e2:	0e 94 30 02 	call	0x460	; 0x460 <_ZN7atmicro11AnalogInput6isLiveEv>
 4e6:	88 23       	and	r24, r24
 4e8:	41 f0       	breq	.+16     	; 0x4fa <_ZN7atmicro11AnalogInputD1Ev+0x28>
 4ea:	87 b1       	in	r24, 0x07	; 7
 4ec:	80 7e       	andi	r24, 0xE0	; 224
 4ee:	87 b9       	out	0x07, r24	; 7
 4f0:	ce 01       	movw	r24, r28
 4f2:	df 91       	pop	r29
 4f4:	cf 91       	pop	r28
 4f6:	0c 94 67 02 	jmp	0x4ce	; 0x4ce <_ZN7atmicro11AnalogInput14stopConversionEv>
 4fa:	df 91       	pop	r29
 4fc:	cf 91       	pop	r28
 4fe:	08 95       	ret

00000500 <_ZN7atmicro11AnalogInput7processEv>:
 500:	cf 93       	push	r28
 502:	df 93       	push	r29
 504:	cd b7       	in	r28, 0x3d	; 61
 506:	de b7       	in	r29, 0x3e	; 62
 508:	27 97       	sbiw	r28, 0x07	; 7
 50a:	0f b6       	in	r0, 0x3f	; 63
 50c:	f8 94       	cli
 50e:	de bf       	out	0x3e, r29	; 62
 510:	0f be       	out	0x3f, r0	; 63
 512:	cd bf       	out	0x3d, r28	; 61
 514:	24 b1       	in	r18, 0x04	; 4
 516:	45 b1       	in	r20, 0x05	; 5
 518:	30 e0       	ldi	r19, 0x00	; 0
 51a:	34 2b       	or	r19, r20
 51c:	dc 01       	movw	r26, r24
 51e:	13 96       	adiw	r26, 0x03	; 3
 520:	3c 93       	st	X, r19
 522:	2e 93       	st	-X, r18
 524:	12 97       	sbiw	r26, 0x02	; 2
 526:	15 96       	adiw	r26, 0x05	; 5
 528:	ed 91       	ld	r30, X+
 52a:	fc 91       	ld	r31, X
 52c:	16 97       	sbiw	r26, 0x06	; 6
 52e:	30 97       	sbiw	r30, 0x00	; 0
 530:	91 f0       	breq	.+36     	; 0x556 <_ZN7atmicro11AnalogInput7processEv+0x56>
 532:	42 e8       	ldi	r20, 0x82	; 130
 534:	50 e0       	ldi	r21, 0x00	; 0
 536:	5a 83       	std	Y+2, r21	; 0x02
 538:	49 83       	std	Y+1, r20	; 0x01
 53a:	3c 83       	std	Y+4, r19	; 0x04
 53c:	2b 83       	std	Y+3, r18	; 0x03
 53e:	14 96       	adiw	r26, 0x04	; 4
 540:	8c 91       	ld	r24, X
 542:	8d 83       	std	Y+5, r24	; 0x05
 544:	ff 83       	std	Y+7, r31	; 0x07
 546:	ee 83       	std	Y+6, r30	; 0x06
 548:	ce 01       	movw	r24, r28
 54a:	01 96       	adiw	r24, 0x01	; 1
 54c:	09 95       	icall
 54e:	ce 01       	movw	r24, r28
 550:	01 96       	adiw	r24, 0x01	; 1
 552:	0e 94 69 02 	call	0x4d2	; 0x4d2 <_ZN7atmicro11AnalogInputD1Ev>
 556:	27 96       	adiw	r28, 0x07	; 7
 558:	0f b6       	in	r0, 0x3f	; 63
 55a:	f8 94       	cli
 55c:	de bf       	out	0x3e, r29	; 62
 55e:	0f be       	out	0x3f, r0	; 63
 560:	cd bf       	out	0x3d, r28	; 61
 562:	df 91       	pop	r29
 564:	cf 91       	pop	r28
 566:	08 95       	ret

00000568 <_ZN7atmicro6Device9setStatusENS_3PINEb>:
 568:	66 23       	and	r22, r22
 56a:	09 f4       	brne	.+2      	; 0x56e <_ZN7atmicro6Device9setStatusENS_3PINEb+0x6>
 56c:	3f c0       	rjmp	.+126    	; 0x5ec <_ZN7atmicro6Device9setStatusENS_3PINEb+0x84>
 56e:	88 30       	cpi	r24, 0x08	; 8
 570:	60 f4       	brcc	.+24     	; 0x58a <_ZN7atmicro6Device9setStatusENS_3PINEb+0x22>
 572:	4b b3       	in	r20, 0x1b	; 27
 574:	21 e0       	ldi	r18, 0x01	; 1
 576:	30 e0       	ldi	r19, 0x00	; 0
 578:	b9 01       	movw	r22, r18
 57a:	02 c0       	rjmp	.+4      	; 0x580 <_ZN7atmicro6Device9setStatusENS_3PINEb+0x18>
 57c:	66 0f       	add	r22, r22
 57e:	77 1f       	adc	r23, r23
 580:	8a 95       	dec	r24
 582:	e2 f7       	brpl	.-8      	; 0x57c <_ZN7atmicro6Device9setStatusENS_3PINEb+0x14>
 584:	cb 01       	movw	r24, r22
 586:	84 2b       	or	r24, r20
 588:	3f c0       	rjmp	.+126    	; 0x608 <_ZN7atmicro6Device9setStatusENS_3PINEb+0xa0>
 58a:	98 ef       	ldi	r25, 0xF8	; 248
 58c:	98 0f       	add	r25, r24
 58e:	98 30       	cpi	r25, 0x08	; 8
 590:	60 f4       	brcc	.+24     	; 0x5aa <_ZN7atmicro6Device9setStatusENS_3PINEb+0x42>
 592:	48 b3       	in	r20, 0x18	; 24
 594:	21 e0       	ldi	r18, 0x01	; 1
 596:	30 e0       	ldi	r19, 0x00	; 0
 598:	b9 01       	movw	r22, r18
 59a:	02 c0       	rjmp	.+4      	; 0x5a0 <_ZN7atmicro6Device9setStatusENS_3PINEb+0x38>
 59c:	66 0f       	add	r22, r22
 59e:	77 1f       	adc	r23, r23
 5a0:	9a 95       	dec	r25
 5a2:	e2 f7       	brpl	.-8      	; 0x59c <_ZN7atmicro6Device9setStatusENS_3PINEb+0x34>
 5a4:	cb 01       	movw	r24, r22
 5a6:	84 2b       	or	r24, r20
 5a8:	41 c0       	rjmp	.+130    	; 0x62c <_ZN7atmicro6Device9setStatusENS_3PINEb+0xc4>
 5aa:	90 ef       	ldi	r25, 0xF0	; 240
 5ac:	98 0f       	add	r25, r24
 5ae:	98 30       	cpi	r25, 0x08	; 8
 5b0:	60 f4       	brcc	.+24     	; 0x5ca <_ZN7atmicro6Device9setStatusENS_3PINEb+0x62>
 5b2:	45 b3       	in	r20, 0x15	; 21
 5b4:	21 e0       	ldi	r18, 0x01	; 1
 5b6:	30 e0       	ldi	r19, 0x00	; 0
 5b8:	b9 01       	movw	r22, r18
 5ba:	02 c0       	rjmp	.+4      	; 0x5c0 <_ZN7atmicro6Device9setStatusENS_3PINEb+0x58>
 5bc:	66 0f       	add	r22, r22
 5be:	77 1f       	adc	r23, r23
 5c0:	9a 95       	dec	r25
 5c2:	e2 f7       	brpl	.-8      	; 0x5bc <_ZN7atmicro6Device9setStatusENS_3PINEb+0x54>
 5c4:	cb 01       	movw	r24, r22
 5c6:	84 2b       	or	r24, r20
 5c8:	43 c0       	rjmp	.+134    	; 0x650 <_ZN7atmicro6Device9setStatusENS_3PINEb+0xe8>
 5ca:	98 ee       	ldi	r25, 0xE8	; 232
 5cc:	98 0f       	add	r25, r24
 5ce:	98 30       	cpi	r25, 0x08	; 8
 5d0:	08 f0       	brcs	.+2      	; 0x5d4 <_ZN7atmicro6Device9setStatusENS_3PINEb+0x6c>
 5d2:	51 c0       	rjmp	.+162    	; 0x676 <_ZN7atmicro6Device9setStatusENS_3PINEb+0x10e>
 5d4:	42 b3       	in	r20, 0x12	; 18
 5d6:	21 e0       	ldi	r18, 0x01	; 1
 5d8:	30 e0       	ldi	r19, 0x00	; 0
 5da:	b9 01       	movw	r22, r18
 5dc:	02 c0       	rjmp	.+4      	; 0x5e2 <_ZN7atmicro6Device9setStatusENS_3PINEb+0x7a>
 5de:	66 0f       	add	r22, r22
 5e0:	77 1f       	adc	r23, r23
 5e2:	9a 95       	dec	r25
 5e4:	e2 f7       	brpl	.-8      	; 0x5de <_ZN7atmicro6Device9setStatusENS_3PINEb+0x76>
 5e6:	cb 01       	movw	r24, r22
 5e8:	84 2b       	or	r24, r20
 5ea:	44 c0       	rjmp	.+136    	; 0x674 <_ZN7atmicro6Device9setStatusENS_3PINEb+0x10c>
 5ec:	88 30       	cpi	r24, 0x08	; 8
 5ee:	70 f4       	brcc	.+28     	; 0x60c <_ZN7atmicro6Device9setStatusENS_3PINEb+0xa4>
 5f0:	4b b3       	in	r20, 0x1b	; 27
 5f2:	21 e0       	ldi	r18, 0x01	; 1
 5f4:	30 e0       	ldi	r19, 0x00	; 0
 5f6:	b9 01       	movw	r22, r18
 5f8:	02 c0       	rjmp	.+4      	; 0x5fe <_ZN7atmicro6Device9setStatusENS_3PINEb+0x96>
 5fa:	66 0f       	add	r22, r22
 5fc:	77 1f       	adc	r23, r23
 5fe:	8a 95       	dec	r24
 600:	e2 f7       	brpl	.-8      	; 0x5fa <_ZN7atmicro6Device9setStatusENS_3PINEb+0x92>
 602:	cb 01       	movw	r24, r22
 604:	80 95       	com	r24
 606:	84 23       	and	r24, r20
 608:	8b bb       	out	0x1b, r24	; 27
 60a:	08 95       	ret
 60c:	98 ef       	ldi	r25, 0xF8	; 248
 60e:	98 0f       	add	r25, r24
 610:	98 30       	cpi	r25, 0x08	; 8
 612:	70 f4       	brcc	.+28     	; 0x630 <_ZN7atmicro6Device9setStatusENS_3PINEb+0xc8>
 614:	48 b3       	in	r20, 0x18	; 24
 616:	21 e0       	ldi	r18, 0x01	; 1
 618:	30 e0       	ldi	r19, 0x00	; 0
 61a:	b9 01       	movw	r22, r18
 61c:	02 c0       	rjmp	.+4      	; 0x622 <_ZN7atmicro6Device9setStatusENS_3PINEb+0xba>
 61e:	66 0f       	add	r22, r22
 620:	77 1f       	adc	r23, r23
 622:	9a 95       	dec	r25
 624:	e2 f7       	brpl	.-8      	; 0x61e <_ZN7atmicro6Device9setStatusENS_3PINEb+0xb6>
 626:	cb 01       	movw	r24, r22
 628:	80 95       	com	r24
 62a:	84 23       	and	r24, r20
 62c:	88 bb       	out	0x18, r24	; 24
 62e:	08 95       	ret
 630:	90 ef       	ldi	r25, 0xF0	; 240
 632:	98 0f       	add	r25, r24
 634:	98 30       	cpi	r25, 0x08	; 8
 636:	70 f4       	brcc	.+28     	; 0x654 <_ZN7atmicro6Device9setStatusENS_3PINEb+0xec>
 638:	45 b3       	in	r20, 0x15	; 21
 63a:	21 e0       	ldi	r18, 0x01	; 1
 63c:	30 e0       	ldi	r19, 0x00	; 0
 63e:	b9 01       	movw	r22, r18
 640:	02 c0       	rjmp	.+4      	; 0x646 <_ZN7atmicro6Device9setStatusENS_3PINEb+0xde>
 642:	66 0f       	add	r22, r22
 644:	77 1f       	adc	r23, r23
 646:	9a 95       	dec	r25
 648:	e2 f7       	brpl	.-8      	; 0x642 <_ZN7atmicro6Device9setStatusENS_3PINEb+0xda>
 64a:	cb 01       	movw	r24, r22
 64c:	80 95       	com	r24
 64e:	84 23       	and	r24, r20
 650:	85 bb       	out	0x15, r24	; 21
 652:	08 95       	ret
 654:	98 ee       	ldi	r25, 0xE8	; 232
 656:	98 0f       	add	r25, r24
 658:	98 30       	cpi	r25, 0x08	; 8
 65a:	68 f4       	brcc	.+26     	; 0x676 <_ZN7atmicro6Device9setStatusENS_3PINEb+0x10e>
 65c:	42 b3       	in	r20, 0x12	; 18
 65e:	21 e0       	ldi	r18, 0x01	; 1
 660:	30 e0       	ldi	r19, 0x00	; 0
 662:	b9 01       	movw	r22, r18
 664:	02 c0       	rjmp	.+4      	; 0x66a <_ZN7atmicro6Device9setStatusENS_3PINEb+0x102>
 666:	66 0f       	add	r22, r22
 668:	77 1f       	adc	r23, r23
 66a:	9a 95       	dec	r25
 66c:	e2 f7       	brpl	.-8      	; 0x666 <_ZN7atmicro6Device9setStatusENS_3PINEb+0xfe>
 66e:	cb 01       	movw	r24, r22
 670:	80 95       	com	r24
 672:	84 23       	and	r24, r20
 674:	82 bb       	out	0x12, r24	; 18
 676:	08 95       	ret

00000678 <_ZN7atmicro6Device12setDirectionENS_3PINEb>:
 678:	66 23       	and	r22, r22
 67a:	09 f4       	brne	.+2      	; 0x67e <_ZN7atmicro6Device12setDirectionENS_3PINEb+0x6>
 67c:	3f c0       	rjmp	.+126    	; 0x6fc <_ZN7atmicro6Device12setDirectionENS_3PINEb+0x84>
 67e:	88 30       	cpi	r24, 0x08	; 8
 680:	60 f4       	brcc	.+24     	; 0x69a <_ZN7atmicro6Device12setDirectionENS_3PINEb+0x22>
 682:	4a b3       	in	r20, 0x1a	; 26
 684:	21 e0       	ldi	r18, 0x01	; 1
 686:	30 e0       	ldi	r19, 0x00	; 0
 688:	b9 01       	movw	r22, r18
 68a:	02 c0       	rjmp	.+4      	; 0x690 <_ZN7atmicro6Device12setDirectionENS_3PINEb+0x18>
 68c:	66 0f       	add	r22, r22
 68e:	77 1f       	adc	r23, r23
 690:	8a 95       	dec	r24
 692:	e2 f7       	brpl	.-8      	; 0x68c <_ZN7atmicro6Device12setDirectionENS_3PINEb+0x14>
 694:	cb 01       	movw	r24, r22
 696:	84 2b       	or	r24, r20
 698:	3f c0       	rjmp	.+126    	; 0x718 <_ZN7atmicro6Device12setDirectionENS_3PINEb+0xa0>
 69a:	98 ef       	ldi	r25, 0xF8	; 248
 69c:	98 0f       	add	r25, r24
 69e:	98 30       	cpi	r25, 0x08	; 8
 6a0:	60 f4       	brcc	.+24     	; 0x6ba <_ZN7atmicro6Device12setDirectionENS_3PINEb+0x42>
 6a2:	47 b3       	in	r20, 0x17	; 23
 6a4:	21 e0       	ldi	r18, 0x01	; 1
 6a6:	30 e0       	ldi	r19, 0x00	; 0
 6a8:	b9 01       	movw	r22, r18
 6aa:	02 c0       	rjmp	.+4      	; 0x6b0 <_ZN7atmicro6Device12setDirectionENS_3PINEb+0x38>
 6ac:	66 0f       	add	r22, r22
 6ae:	77 1f       	adc	r23, r23
 6b0:	9a 95       	dec	r25
 6b2:	e2 f7       	brpl	.-8      	; 0x6ac <_ZN7atmicro6Device12setDirectionENS_3PINEb+0x34>
 6b4:	cb 01       	movw	r24, r22
 6b6:	84 2b       	or	r24, r20
 6b8:	41 c0       	rjmp	.+130    	; 0x73c <_ZN7atmicro6Device12setDirectionENS_3PINEb+0xc4>
 6ba:	90 ef       	ldi	r25, 0xF0	; 240
 6bc:	98 0f       	add	r25, r24
 6be:	98 30       	cpi	r25, 0x08	; 8
 6c0:	60 f4       	brcc	.+24     	; 0x6da <_ZN7atmicro6Device12setDirectionENS_3PINEb+0x62>
 6c2:	44 b3       	in	r20, 0x14	; 20
 6c4:	21 e0       	ldi	r18, 0x01	; 1
 6c6:	30 e0       	ldi	r19, 0x00	; 0
 6c8:	b9 01       	movw	r22, r18
 6ca:	02 c0       	rjmp	.+4      	; 0x6d0 <_ZN7atmicro6Device12setDirectionENS_3PINEb+0x58>
 6cc:	66 0f       	add	r22, r22
 6ce:	77 1f       	adc	r23, r23
 6d0:	9a 95       	dec	r25
 6d2:	e2 f7       	brpl	.-8      	; 0x6cc <_ZN7atmicro6Device12setDirectionENS_3PINEb+0x54>
 6d4:	cb 01       	movw	r24, r22
 6d6:	84 2b       	or	r24, r20
 6d8:	43 c0       	rjmp	.+134    	; 0x760 <_ZN7atmicro6Device12setDirectionENS_3PINEb+0xe8>
 6da:	98 ee       	ldi	r25, 0xE8	; 232
 6dc:	98 0f       	add	r25, r24
 6de:	98 30       	cpi	r25, 0x08	; 8
 6e0:	08 f0       	brcs	.+2      	; 0x6e4 <_ZN7atmicro6Device12setDirectionENS_3PINEb+0x6c>
 6e2:	51 c0       	rjmp	.+162    	; 0x786 <_ZN7atmicro6Device12setDirectionENS_3PINEb+0x10e>
 6e4:	41 b3       	in	r20, 0x11	; 17
 6e6:	21 e0       	ldi	r18, 0x01	; 1
 6e8:	30 e0       	ldi	r19, 0x00	; 0
 6ea:	b9 01       	movw	r22, r18
 6ec:	02 c0       	rjmp	.+4      	; 0x6f2 <_ZN7atmicro6Device12setDirectionENS_3PINEb+0x7a>
 6ee:	66 0f       	add	r22, r22
 6f0:	77 1f       	adc	r23, r23
 6f2:	9a 95       	dec	r25
 6f4:	e2 f7       	brpl	.-8      	; 0x6ee <_ZN7atmicro6Device12setDirectionENS_3PINEb+0x76>
 6f6:	cb 01       	movw	r24, r22
 6f8:	84 2b       	or	r24, r20
 6fa:	44 c0       	rjmp	.+136    	; 0x784 <_ZN7atmicro6Device12setDirectionENS_3PINEb+0x10c>
 6fc:	88 30       	cpi	r24, 0x08	; 8
 6fe:	70 f4       	brcc	.+28     	; 0x71c <_ZN7atmicro6Device12setDirectionENS_3PINEb+0xa4>
 700:	4a b3       	in	r20, 0x1a	; 26
 702:	21 e0       	ldi	r18, 0x01	; 1
 704:	30 e0       	ldi	r19, 0x00	; 0
 706:	b9 01       	movw	r22, r18
 708:	02 c0       	rjmp	.+4      	; 0x70e <_ZN7atmicro6Device12setDirectionENS_3PINEb+0x96>
 70a:	66 0f       	add	r22, r22
 70c:	77 1f       	adc	r23, r23
 70e:	8a 95       	dec	r24
 710:	e2 f7       	brpl	.-8      	; 0x70a <_ZN7atmicro6Device12setDirectionENS_3PINEb+0x92>
 712:	cb 01       	movw	r24, r22
 714:	80 95       	com	r24
 716:	84 23       	and	r24, r20
 718:	8a bb       	out	0x1a, r24	; 26
 71a:	08 95       	ret
 71c:	98 ef       	ldi	r25, 0xF8	; 248
 71e:	98 0f       	add	r25, r24
 720:	98 30       	cpi	r25, 0x08	; 8
 722:	70 f4       	brcc	.+28     	; 0x740 <_ZN7atmicro6Device12setDirectionENS_3PINEb+0xc8>
 724:	47 b3       	in	r20, 0x17	; 23
 726:	21 e0       	ldi	r18, 0x01	; 1
 728:	30 e0       	ldi	r19, 0x00	; 0
 72a:	b9 01       	movw	r22, r18
 72c:	02 c0       	rjmp	.+4      	; 0x732 <_ZN7atmicro6Device12setDirectionENS_3PINEb+0xba>
 72e:	66 0f       	add	r22, r22
 730:	77 1f       	adc	r23, r23
 732:	9a 95       	dec	r25
 734:	e2 f7       	brpl	.-8      	; 0x72e <_ZN7atmicro6Device12setDirectionENS_3PINEb+0xb6>
 736:	cb 01       	movw	r24, r22
 738:	80 95       	com	r24
 73a:	84 23       	and	r24, r20
 73c:	87 bb       	out	0x17, r24	; 23
 73e:	08 95       	ret
 740:	90 ef       	ldi	r25, 0xF0	; 240
 742:	98 0f       	add	r25, r24
 744:	98 30       	cpi	r25, 0x08	; 8
 746:	70 f4       	brcc	.+28     	; 0x764 <_ZN7atmicro6Device12setDirectionENS_3PINEb+0xec>
 748:	44 b3       	in	r20, 0x14	; 20
 74a:	21 e0       	ldi	r18, 0x01	; 1
 74c:	30 e0       	ldi	r19, 0x00	; 0
 74e:	b9 01       	movw	r22, r18
 750:	02 c0       	rjmp	.+4      	; 0x756 <_ZN7atmicro6Device12setDirectionENS_3PINEb+0xde>
 752:	66 0f       	add	r22, r22
 754:	77 1f       	adc	r23, r23
 756:	9a 95       	dec	r25
 758:	e2 f7       	brpl	.-8      	; 0x752 <_ZN7atmicro6Device12setDirectionENS_3PINEb+0xda>
 75a:	cb 01       	movw	r24, r22
 75c:	80 95       	com	r24
 75e:	84 23       	and	r24, r20
 760:	84 bb       	out	0x14, r24	; 20
 762:	08 95       	ret
 764:	98 ee       	ldi	r25, 0xE8	; 232
 766:	98 0f       	add	r25, r24
 768:	98 30       	cpi	r25, 0x08	; 8
 76a:	68 f4       	brcc	.+26     	; 0x786 <_ZN7atmicro6Device12setDirectionENS_3PINEb+0x10e>
 76c:	41 b3       	in	r20, 0x11	; 17
 76e:	21 e0       	ldi	r18, 0x01	; 1
 770:	30 e0       	ldi	r19, 0x00	; 0
 772:	b9 01       	movw	r22, r18
 774:	02 c0       	rjmp	.+4      	; 0x77a <_ZN7atmicro6Device12setDirectionENS_3PINEb+0x102>
 776:	66 0f       	add	r22, r22
 778:	77 1f       	adc	r23, r23
 77a:	9a 95       	dec	r25
 77c:	e2 f7       	brpl	.-8      	; 0x776 <_ZN7atmicro6Device12setDirectionENS_3PINEb+0xfe>
 77e:	cb 01       	movw	r24, r22
 780:	80 95       	com	r24
 782:	84 23       	and	r24, r20
 784:	81 bb       	out	0x11, r24	; 17
 786:	08 95       	ret

00000788 <_ZN7atmicro6Device9setStatusENS_4PORTEi>:
 788:	88 30       	cpi	r24, 0x08	; 8
 78a:	59 f0       	breq	.+22     	; 0x7a2 <_ZN7atmicro6Device9setStatusENS_4PORTEi+0x1a>
 78c:	18 f4       	brcc	.+6      	; 0x794 <_ZN7atmicro6Device9setStatusENS_4PORTEi+0xc>
 78e:	88 23       	and	r24, r24
 790:	31 f0       	breq	.+12     	; 0x79e <_ZN7atmicro6Device9setStatusENS_4PORTEi+0x16>
 792:	08 95       	ret
 794:	80 31       	cpi	r24, 0x10	; 16
 796:	39 f0       	breq	.+14     	; 0x7a6 <_ZN7atmicro6Device9setStatusENS_4PORTEi+0x1e>
 798:	88 31       	cpi	r24, 0x18	; 24
 79a:	39 f0       	breq	.+14     	; 0x7aa <_ZN7atmicro6Device9setStatusENS_4PORTEi+0x22>
 79c:	08 95       	ret
 79e:	6b bb       	out	0x1b, r22	; 27
 7a0:	08 95       	ret
 7a2:	68 bb       	out	0x18, r22	; 24
 7a4:	08 95       	ret
 7a6:	65 bb       	out	0x15, r22	; 21
 7a8:	08 95       	ret
 7aa:	62 bb       	out	0x12, r22	; 18
 7ac:	08 95       	ret

000007ae <_ZN7atmicro6Device12setDirectionENS_4PORTEi>:
 7ae:	88 30       	cpi	r24, 0x08	; 8
 7b0:	59 f0       	breq	.+22     	; 0x7c8 <_ZN7atmicro6Device12setDirectionENS_4PORTEi+0x1a>
 7b2:	18 f4       	brcc	.+6      	; 0x7ba <_ZN7atmicro6Device12setDirectionENS_4PORTEi+0xc>
 7b4:	88 23       	and	r24, r24
 7b6:	31 f0       	breq	.+12     	; 0x7c4 <_ZN7atmicro6Device12setDirectionENS_4PORTEi+0x16>
 7b8:	08 95       	ret
 7ba:	80 31       	cpi	r24, 0x10	; 16
 7bc:	39 f0       	breq	.+14     	; 0x7cc <_ZN7atmicro6Device12setDirectionENS_4PORTEi+0x1e>
 7be:	88 31       	cpi	r24, 0x18	; 24
 7c0:	39 f0       	breq	.+14     	; 0x7d0 <_ZN7atmicro6Device12setDirectionENS_4PORTEi+0x22>
 7c2:	08 95       	ret
 7c4:	6a bb       	out	0x1a, r22	; 26
 7c6:	08 95       	ret
 7c8:	67 bb       	out	0x17, r22	; 23
 7ca:	08 95       	ret
 7cc:	64 bb       	out	0x14, r22	; 20
 7ce:	08 95       	ret
 7d0:	61 bb       	out	0x11, r22	; 17
 7d2:	08 95       	ret

000007d4 <_ZN7atmicro6Device9getStatusENS_4PORTENS_8POSITIONE>:
 7d4:	88 30       	cpi	r24, 0x08	; 8
 7d6:	59 f0       	breq	.+22     	; 0x7ee <_ZN7atmicro6Device9getStatusENS_4PORTENS_8POSITIONE+0x1a>
 7d8:	20 f4       	brcc	.+8      	; 0x7e2 <_ZN7atmicro6Device9getStatusENS_4PORTENS_8POSITIONE+0xe>
 7da:	81 11       	cpse	r24, r1
 7dc:	13 c0       	rjmp	.+38     	; 0x804 <_ZN7atmicro6Device9getStatusENS_4PORTENS_8POSITIONE+0x30>
 7de:	89 b3       	in	r24, 0x19	; 25
 7e0:	09 c0       	rjmp	.+18     	; 0x7f4 <_ZN7atmicro6Device9getStatusENS_4PORTENS_8POSITIONE+0x20>
 7e2:	80 31       	cpi	r24, 0x10	; 16
 7e4:	31 f0       	breq	.+12     	; 0x7f2 <_ZN7atmicro6Device9getStatusENS_4PORTENS_8POSITIONE+0x1e>
 7e6:	88 31       	cpi	r24, 0x18	; 24
 7e8:	69 f4       	brne	.+26     	; 0x804 <_ZN7atmicro6Device9getStatusENS_4PORTENS_8POSITIONE+0x30>
 7ea:	80 b3       	in	r24, 0x10	; 16
 7ec:	03 c0       	rjmp	.+6      	; 0x7f4 <_ZN7atmicro6Device9getStatusENS_4PORTENS_8POSITIONE+0x20>
 7ee:	86 b3       	in	r24, 0x16	; 22
 7f0:	01 c0       	rjmp	.+2      	; 0x7f4 <_ZN7atmicro6Device9getStatusENS_4PORTENS_8POSITIONE+0x20>
 7f2:	83 b3       	in	r24, 0x13	; 19
 7f4:	90 e0       	ldi	r25, 0x00	; 0
 7f6:	02 c0       	rjmp	.+4      	; 0x7fc <_ZN7atmicro6Device9getStatusENS_4PORTENS_8POSITIONE+0x28>
 7f8:	95 95       	asr	r25
 7fa:	87 95       	ror	r24
 7fc:	6a 95       	dec	r22
 7fe:	e2 f7       	brpl	.-8      	; 0x7f8 <_ZN7atmicro6Device9getStatusENS_4PORTENS_8POSITIONE+0x24>
 800:	81 70       	andi	r24, 0x01	; 1
 802:	08 95       	ret
 804:	80 e0       	ldi	r24, 0x00	; 0
 806:	08 95       	ret

00000808 <_ZN7atmicro13DigitalOutput10initializeEv>:
 808:	cf 93       	push	r28
 80a:	df 93       	push	r29
 80c:	ec 01       	movw	r28, r24
 80e:	61 e0       	ldi	r22, 0x01	; 1
 810:	8b 81       	ldd	r24, Y+3	; 0x03
 812:	0e 94 3c 03 	call	0x678	; 0x678 <_ZN7atmicro6Device12setDirectionENS_3PINEb>
 816:	60 e0       	ldi	r22, 0x00	; 0
 818:	8b 81       	ldd	r24, Y+3	; 0x03
 81a:	df 91       	pop	r29
 81c:	cf 91       	pop	r28
 81e:	0c 94 b4 02 	jmp	0x568	; 0x568 <_ZN7atmicro6Device9setStatusENS_3PINEb>

00000822 <_ZN7atmicro13DigitalOutputC1ENS_3PINE>:
 822:	28 e8       	ldi	r18, 0x88	; 136
 824:	30 e0       	ldi	r19, 0x00	; 0
 826:	fc 01       	movw	r30, r24
 828:	31 83       	std	Z+1, r19	; 0x01
 82a:	20 83       	st	Z, r18
 82c:	63 83       	std	Z+3, r22	; 0x03
 82e:	12 82       	std	Z+2, r1	; 0x02
 830:	0c 94 04 04 	jmp	0x808	; 0x808 <_ZN7atmicro13DigitalOutput10initializeEv>

00000834 <_ZN7atmicro13DigitalOutput2onEv>:
 834:	cf 93       	push	r28
 836:	df 93       	push	r29
 838:	ec 01       	movw	r28, r24
 83a:	61 e0       	ldi	r22, 0x01	; 1
 83c:	8b 81       	ldd	r24, Y+3	; 0x03
 83e:	0e 94 b4 02 	call	0x568	; 0x568 <_ZN7atmicro6Device9setStatusENS_3PINEb>
 842:	81 e0       	ldi	r24, 0x01	; 1
 844:	8a 83       	std	Y+2, r24	; 0x02
 846:	df 91       	pop	r29
 848:	cf 91       	pop	r28
 84a:	08 95       	ret

0000084c <_ZN7atmicro15ParallelTextLCDD1Ev>:
 84c:	cf 93       	push	r28
 84e:	df 93       	push	r29
 850:	ec 01       	movw	r28, r24
 852:	8e e8       	ldi	r24, 0x8E	; 142
 854:	90 e0       	ldi	r25, 0x00	; 0
 856:	99 83       	std	Y+1, r25	; 0x01
 858:	88 83       	st	Y, r24
 85a:	60 e0       	ldi	r22, 0x00	; 0
 85c:	70 e0       	ldi	r23, 0x00	; 0
 85e:	8a 81       	ldd	r24, Y+2	; 0x02
 860:	0e 94 d7 03 	call	0x7ae	; 0x7ae <_ZN7atmicro6Device12setDirectionENS_4PORTEi>
 864:	60 e0       	ldi	r22, 0x00	; 0
 866:	8d 81       	ldd	r24, Y+5	; 0x05
 868:	0e 94 3c 03 	call	0x678	; 0x678 <_ZN7atmicro6Device12setDirectionENS_3PINEb>
 86c:	60 e0       	ldi	r22, 0x00	; 0
 86e:	8c 81       	ldd	r24, Y+4	; 0x04
 870:	0e 94 3c 03 	call	0x678	; 0x678 <_ZN7atmicro6Device12setDirectionENS_3PINEb>
 874:	60 e0       	ldi	r22, 0x00	; 0
 876:	8b 81       	ldd	r24, Y+3	; 0x03
 878:	0e 94 3c 03 	call	0x678	; 0x678 <_ZN7atmicro6Device12setDirectionENS_3PINEb>
 87c:	60 e0       	ldi	r22, 0x00	; 0
 87e:	70 e0       	ldi	r23, 0x00	; 0
 880:	8a 81       	ldd	r24, Y+2	; 0x02
 882:	0e 94 c4 03 	call	0x788	; 0x788 <_ZN7atmicro6Device9setStatusENS_4PORTEi>
 886:	60 e0       	ldi	r22, 0x00	; 0
 888:	8d 81       	ldd	r24, Y+5	; 0x05
 88a:	0e 94 b4 02 	call	0x568	; 0x568 <_ZN7atmicro6Device9setStatusENS_3PINEb>
 88e:	60 e0       	ldi	r22, 0x00	; 0
 890:	8c 81       	ldd	r24, Y+4	; 0x04
 892:	0e 94 b4 02 	call	0x568	; 0x568 <_ZN7atmicro6Device9setStatusENS_3PINEb>
 896:	60 e0       	ldi	r22, 0x00	; 0
 898:	8b 81       	ldd	r24, Y+3	; 0x03
 89a:	df 91       	pop	r29
 89c:	cf 91       	pop	r28
 89e:	0c 94 b4 02 	jmp	0x568	; 0x568 <_ZN7atmicro6Device9setStatusENS_3PINEb>

000008a2 <_ZN7atmicro15ParallelTextLCD13action_enableEv>:
 8a2:	cf 93       	push	r28
 8a4:	df 93       	push	r29
 8a6:	ec 01       	movw	r28, r24
 8a8:	61 e0       	ldi	r22, 0x01	; 1
 8aa:	8b 81       	ldd	r24, Y+3	; 0x03
 8ac:	0e 94 b4 02 	call	0x568	; 0x568 <_ZN7atmicro6Device9setStatusENS_3PINEb>
 8b0:	00 00       	nop
 8b2:	00 00       	nop
 8b4:	60 e0       	ldi	r22, 0x00	; 0
 8b6:	8b 81       	ldd	r24, Y+3	; 0x03
 8b8:	df 91       	pop	r29
 8ba:	cf 91       	pop	r28
 8bc:	0c 94 b4 02 	jmp	0x568	; 0x568 <_ZN7atmicro6Device9setStatusENS_3PINEb>

000008c0 <_ZN7atmicro15ParallelTextLCD9wait_busyEv>:
 8c0:	cf 93       	push	r28
 8c2:	df 93       	push	r29
 8c4:	ec 01       	movw	r28, r24
 8c6:	60 e0       	ldi	r22, 0x00	; 0
 8c8:	70 e0       	ldi	r23, 0x00	; 0
 8ca:	8a 81       	ldd	r24, Y+2	; 0x02
 8cc:	0e 94 d7 03 	call	0x7ae	; 0x7ae <_ZN7atmicro6Device12setDirectionENS_4PORTEi>
 8d0:	61 e0       	ldi	r22, 0x01	; 1
 8d2:	8c 81       	ldd	r24, Y+4	; 0x04
 8d4:	0e 94 b4 02 	call	0x568	; 0x568 <_ZN7atmicro6Device9setStatusENS_3PINEb>
 8d8:	60 e0       	ldi	r22, 0x00	; 0
 8da:	8d 81       	ldd	r24, Y+5	; 0x05
 8dc:	0e 94 b4 02 	call	0x568	; 0x568 <_ZN7atmicro6Device9setStatusENS_3PINEb>
 8e0:	67 e0       	ldi	r22, 0x07	; 7
 8e2:	8a 81       	ldd	r24, Y+2	; 0x02
 8e4:	0e 94 ea 03 	call	0x7d4	; 0x7d4 <_ZN7atmicro6Device9getStatusENS_4PORTENS_8POSITIONE>
 8e8:	81 11       	cpse	r24, r1
 8ea:	04 c0       	rjmp	.+8      	; 0x8f4 <_ZN7atmicro15ParallelTextLCD9wait_busyEv+0x34>
 8ec:	ce 01       	movw	r24, r28
 8ee:	0e 94 51 04 	call	0x8a2	; 0x8a2 <_ZN7atmicro15ParallelTextLCD13action_enableEv>
 8f2:	f6 cf       	rjmp	.-20     	; 0x8e0 <_ZN7atmicro15ParallelTextLCD9wait_busyEv+0x20>
 8f4:	6f ef       	ldi	r22, 0xFF	; 255
 8f6:	70 e0       	ldi	r23, 0x00	; 0
 8f8:	8a 81       	ldd	r24, Y+2	; 0x02
 8fa:	df 91       	pop	r29
 8fc:	cf 91       	pop	r28
 8fe:	0c 94 d7 03 	jmp	0x7ae	; 0x7ae <_ZN7atmicro6Device12setDirectionENS_4PORTEi>

00000902 <_ZN7atmicro15ParallelTextLCD7commandEh>:
 902:	0f 93       	push	r16
 904:	1f 93       	push	r17
 906:	cf 93       	push	r28
 908:	df 93       	push	r29
 90a:	1f 92       	push	r1
 90c:	cd b7       	in	r28, 0x3d	; 61
 90e:	de b7       	in	r29, 0x3e	; 62
 910:	8c 01       	movw	r16, r24
 912:	69 83       	std	Y+1, r22	; 0x01
 914:	0e 94 60 04 	call	0x8c0	; 0x8c0 <_ZN7atmicro15ParallelTextLCD9wait_busyEv>
 918:	69 81       	ldd	r22, Y+1	; 0x01
 91a:	70 e0       	ldi	r23, 0x00	; 0
 91c:	f8 01       	movw	r30, r16
 91e:	82 81       	ldd	r24, Z+2	; 0x02
 920:	0e 94 c4 03 	call	0x788	; 0x788 <_ZN7atmicro6Device9setStatusENS_4PORTEi>
 924:	60 e0       	ldi	r22, 0x00	; 0
 926:	f8 01       	movw	r30, r16
 928:	84 81       	ldd	r24, Z+4	; 0x04
 92a:	0e 94 b4 02 	call	0x568	; 0x568 <_ZN7atmicro6Device9setStatusENS_3PINEb>
 92e:	60 e0       	ldi	r22, 0x00	; 0
 930:	f8 01       	movw	r30, r16
 932:	85 81       	ldd	r24, Z+5	; 0x05
 934:	0e 94 b4 02 	call	0x568	; 0x568 <_ZN7atmicro6Device9setStatusENS_3PINEb>
 938:	c8 01       	movw	r24, r16
 93a:	0e 94 51 04 	call	0x8a2	; 0x8a2 <_ZN7atmicro15ParallelTextLCD13action_enableEv>
 93e:	60 e0       	ldi	r22, 0x00	; 0
 940:	70 e0       	ldi	r23, 0x00	; 0
 942:	f8 01       	movw	r30, r16
 944:	82 81       	ldd	r24, Z+2	; 0x02
 946:	0f 90       	pop	r0
 948:	df 91       	pop	r29
 94a:	cf 91       	pop	r28
 94c:	1f 91       	pop	r17
 94e:	0f 91       	pop	r16
 950:	0c 94 c4 03 	jmp	0x788	; 0x788 <_ZN7atmicro6Device9setStatusENS_4PORTEi>

00000954 <_ZN7atmicro15ParallelTextLCD10initializeEv>:
 954:	cf 93       	push	r28
 956:	df 93       	push	r29
 958:	ec 01       	movw	r28, r24
 95a:	61 e0       	ldi	r22, 0x01	; 1
 95c:	8d 81       	ldd	r24, Y+5	; 0x05
 95e:	0e 94 3c 03 	call	0x678	; 0x678 <_ZN7atmicro6Device12setDirectionENS_3PINEb>
 962:	61 e0       	ldi	r22, 0x01	; 1
 964:	8c 81       	ldd	r24, Y+4	; 0x04
 966:	0e 94 3c 03 	call	0x678	; 0x678 <_ZN7atmicro6Device12setDirectionENS_3PINEb>
 96a:	61 e0       	ldi	r22, 0x01	; 1
 96c:	8b 81       	ldd	r24, Y+3	; 0x03
 96e:	0e 94 3c 03 	call	0x678	; 0x678 <_ZN7atmicro6Device12setDirectionENS_3PINEb>
 972:	85 ea       	ldi	r24, 0xA5	; 165
 974:	9e e0       	ldi	r25, 0x0E	; 14
 976:	01 97       	sbiw	r24, 0x01	; 1
 978:	f1 f7       	brne	.-4      	; 0x976 <_ZN7atmicro15ParallelTextLCD10initializeEv+0x22>
 97a:	00 c0       	rjmp	.+0      	; 0x97c <_ZN7atmicro15ParallelTextLCD10initializeEv+0x28>
 97c:	00 00       	nop
 97e:	61 e0       	ldi	r22, 0x01	; 1
 980:	ce 01       	movw	r24, r28
 982:	0e 94 81 04 	call	0x902	; 0x902 <_ZN7atmicro15ParallelTextLCD7commandEh>
 986:	83 ef       	ldi	r24, 0xF3	; 243
 988:	91 e0       	ldi	r25, 0x01	; 1
 98a:	01 97       	sbiw	r24, 0x01	; 1
 98c:	f1 f7       	brne	.-4      	; 0x98a <_ZN7atmicro15ParallelTextLCD10initializeEv+0x36>
 98e:	00 c0       	rjmp	.+0      	; 0x990 <_ZN7atmicro15ParallelTextLCD10initializeEv+0x3c>
 990:	00 00       	nop
 992:	68 e3       	ldi	r22, 0x38	; 56
 994:	ce 01       	movw	r24, r28
 996:	0e 94 81 04 	call	0x902	; 0x902 <_ZN7atmicro15ParallelTextLCD7commandEh>
 99a:	90 e1       	ldi	r25, 0x10	; 16
 99c:	9a 95       	dec	r25
 99e:	f1 f7       	brne	.-4      	; 0x99c <_ZN7atmicro15ParallelTextLCD10initializeEv+0x48>
 9a0:	00 c0       	rjmp	.+0      	; 0x9a2 <_ZN7atmicro15ParallelTextLCD10initializeEv+0x4e>
 9a2:	6c e0       	ldi	r22, 0x0C	; 12
 9a4:	ce 01       	movw	r24, r28
 9a6:	0e 94 81 04 	call	0x902	; 0x902 <_ZN7atmicro15ParallelTextLCD7commandEh>
 9aa:	80 e1       	ldi	r24, 0x10	; 16
 9ac:	8a 95       	dec	r24
 9ae:	f1 f7       	brne	.-4      	; 0x9ac <_ZN7atmicro15ParallelTextLCD10initializeEv+0x58>
 9b0:	00 c0       	rjmp	.+0      	; 0x9b2 <_ZN7atmicro15ParallelTextLCD10initializeEv+0x5e>
 9b2:	df 91       	pop	r29
 9b4:	cf 91       	pop	r28
 9b6:	08 95       	ret

000009b8 <_ZN7atmicro15ParallelTextLCDC1ENS_4PORTENS_3PINES2_S2_>:
 9b8:	0f 93       	push	r16
 9ba:	cf 93       	push	r28
 9bc:	df 93       	push	r29
 9be:	ec 01       	movw	r28, r24
 9c0:	8e e8       	ldi	r24, 0x8E	; 142
 9c2:	90 e0       	ldi	r25, 0x00	; 0
 9c4:	99 83       	std	Y+1, r25	; 0x01
 9c6:	88 83       	st	Y, r24
 9c8:	88 e0       	ldi	r24, 0x08	; 8
 9ca:	e6 e6       	ldi	r30, 0x66	; 102
 9cc:	f0 e0       	ldi	r31, 0x00	; 0
 9ce:	de 01       	movw	r26, r28
 9d0:	16 96       	adiw	r26, 0x06	; 6
 9d2:	01 90       	ld	r0, Z+
 9d4:	0d 92       	st	X+, r0
 9d6:	8a 95       	dec	r24
 9d8:	e1 f7       	brne	.-8      	; 0x9d2 <_ZN7atmicro15ParallelTextLCDC1ENS_4PORTENS_3PINES2_S2_+0x1a>
 9da:	6a 83       	std	Y+2, r22	; 0x02
 9dc:	4d 83       	std	Y+5, r20	; 0x05
 9de:	2c 83       	std	Y+4, r18	; 0x04
 9e0:	0b 83       	std	Y+3, r16	; 0x03
 9e2:	ce 01       	movw	r24, r28
 9e4:	df 91       	pop	r29
 9e6:	cf 91       	pop	r28
 9e8:	0f 91       	pop	r16
 9ea:	0c 94 aa 04 	jmp	0x954	; 0x954 <_ZN7atmicro15ParallelTextLCD10initializeEv>

000009ee <_ZN7atmicro15ParallelTextLCD6cursorEii>:
 9ee:	60 58       	subi	r22, 0x80	; 128
 9f0:	fa 01       	movw	r30, r20
 9f2:	33 96       	adiw	r30, 0x03	; 3
 9f4:	ee 0f       	add	r30, r30
 9f6:	ff 1f       	adc	r31, r31
 9f8:	e8 0f       	add	r30, r24
 9fa:	f9 1f       	adc	r31, r25
 9fc:	20 81       	ld	r18, Z
 9fe:	62 0f       	add	r22, r18
 a00:	0c 94 81 04 	jmp	0x902	; 0x902 <_ZN7atmicro15ParallelTextLCD7commandEh>

00000a04 <_ZN7atmicro15ParallelTextLCD9characterEh>:
 a04:	0f 93       	push	r16
 a06:	1f 93       	push	r17
 a08:	cf 93       	push	r28
 a0a:	df 93       	push	r29
 a0c:	1f 92       	push	r1
 a0e:	cd b7       	in	r28, 0x3d	; 61
 a10:	de b7       	in	r29, 0x3e	; 62
 a12:	8c 01       	movw	r16, r24
 a14:	69 83       	std	Y+1, r22	; 0x01
 a16:	0e 94 60 04 	call	0x8c0	; 0x8c0 <_ZN7atmicro15ParallelTextLCD9wait_busyEv>
 a1a:	69 81       	ldd	r22, Y+1	; 0x01
 a1c:	70 e0       	ldi	r23, 0x00	; 0
 a1e:	f8 01       	movw	r30, r16
 a20:	82 81       	ldd	r24, Z+2	; 0x02
 a22:	0e 94 c4 03 	call	0x788	; 0x788 <_ZN7atmicro6Device9setStatusENS_4PORTEi>
 a26:	60 e0       	ldi	r22, 0x00	; 0
 a28:	f8 01       	movw	r30, r16
 a2a:	84 81       	ldd	r24, Z+4	; 0x04
 a2c:	0e 94 b4 02 	call	0x568	; 0x568 <_ZN7atmicro6Device9setStatusENS_3PINEb>
 a30:	61 e0       	ldi	r22, 0x01	; 1
 a32:	f8 01       	movw	r30, r16
 a34:	85 81       	ldd	r24, Z+5	; 0x05
 a36:	0e 94 b4 02 	call	0x568	; 0x568 <_ZN7atmicro6Device9setStatusENS_3PINEb>
 a3a:	c8 01       	movw	r24, r16
 a3c:	0e 94 51 04 	call	0x8a2	; 0x8a2 <_ZN7atmicro15ParallelTextLCD13action_enableEv>
 a40:	60 e0       	ldi	r22, 0x00	; 0
 a42:	70 e0       	ldi	r23, 0x00	; 0
 a44:	f8 01       	movw	r30, r16
 a46:	82 81       	ldd	r24, Z+2	; 0x02
 a48:	0f 90       	pop	r0
 a4a:	df 91       	pop	r29
 a4c:	cf 91       	pop	r28
 a4e:	1f 91       	pop	r17
 a50:	0f 91       	pop	r16
 a52:	0c 94 c4 03 	jmp	0x788	; 0x788 <_ZN7atmicro6Device9setStatusENS_4PORTEi>

00000a56 <_ZN7atmicro15ParallelTextLCD5printEPKc>:
 a56:	0f 93       	push	r16
 a58:	1f 93       	push	r17
 a5a:	cf 93       	push	r28
 a5c:	df 93       	push	r29
 a5e:	8c 01       	movw	r16, r24
 a60:	eb 01       	movw	r28, r22
 a62:	69 91       	ld	r22, Y+
 a64:	66 23       	and	r22, r22
 a66:	21 f0       	breq	.+8      	; 0xa70 <_ZN7atmicro15ParallelTextLCD5printEPKc+0x1a>
 a68:	c8 01       	movw	r24, r16
 a6a:	0e 94 02 05 	call	0xa04	; 0xa04 <_ZN7atmicro15ParallelTextLCD9characterEh>
 a6e:	f9 cf       	rjmp	.-14     	; 0xa62 <_ZN7atmicro15ParallelTextLCD5printEPKc+0xc>
 a70:	df 91       	pop	r29
 a72:	cf 91       	pop	r28
 a74:	1f 91       	pop	r17
 a76:	0f 91       	pop	r16
 a78:	08 95       	ret

00000a7a <_ZN7atmicro15ParallelTextLCD5printEiiPKc>:
 a7a:	0f 93       	push	r16
 a7c:	1f 93       	push	r17
 a7e:	cf 93       	push	r28
 a80:	df 93       	push	r29
 a82:	ec 01       	movw	r28, r24
 a84:	89 01       	movw	r16, r18
 a86:	0e 94 f7 04 	call	0x9ee	; 0x9ee <_ZN7atmicro15ParallelTextLCD6cursorEii>
 a8a:	b8 01       	movw	r22, r16
 a8c:	ce 01       	movw	r24, r28
 a8e:	df 91       	pop	r29
 a90:	cf 91       	pop	r28
 a92:	1f 91       	pop	r17
 a94:	0f 91       	pop	r16
 a96:	0c 94 2b 05 	jmp	0xa56	; 0xa56 <_ZN7atmicro15ParallelTextLCD5printEPKc>

00000a9a <_ZN7atmicro15ParallelTextLCD5printEiii>:
 a9a:	cf 92       	push	r12
 a9c:	df 92       	push	r13
 a9e:	ef 92       	push	r14
 aa0:	ff 92       	push	r15
 aa2:	0f 93       	push	r16
 aa4:	1f 93       	push	r17
 aa6:	cf 93       	push	r28
 aa8:	df 93       	push	r29
 aaa:	cd b7       	in	r28, 0x3d	; 61
 aac:	de b7       	in	r29, 0x3e	; 62
 aae:	60 97       	sbiw	r28, 0x10	; 16
 ab0:	0f b6       	in	r0, 0x3f	; 63
 ab2:	f8 94       	cli
 ab4:	de bf       	out	0x3e, r29	; 62
 ab6:	0f be       	out	0x3f, r0	; 63
 ab8:	cd bf       	out	0x3d, r28	; 61
 aba:	8c 01       	movw	r16, r24
 abc:	7b 01       	movw	r14, r22
 abe:	6a 01       	movw	r12, r20
 ac0:	c9 01       	movw	r24, r18
 ac2:	4a e0       	ldi	r20, 0x0A	; 10
 ac4:	be 01       	movw	r22, r28
 ac6:	6f 5f       	subi	r22, 0xFF	; 255
 ac8:	7f 4f       	sbci	r23, 0xFF	; 255
 aca:	0e 94 99 07 	call	0xf32	; 0xf32 <__itoa_ncheck>
 ace:	9e 01       	movw	r18, r28
 ad0:	2f 5f       	subi	r18, 0xFF	; 255
 ad2:	3f 4f       	sbci	r19, 0xFF	; 255
 ad4:	a6 01       	movw	r20, r12
 ad6:	b7 01       	movw	r22, r14
 ad8:	c8 01       	movw	r24, r16
 ada:	0e 94 3d 05 	call	0xa7a	; 0xa7a <_ZN7atmicro15ParallelTextLCD5printEiiPKc>
 ade:	60 96       	adiw	r28, 0x10	; 16
 ae0:	0f b6       	in	r0, 0x3f	; 63
 ae2:	f8 94       	cli
 ae4:	de bf       	out	0x3e, r29	; 62
 ae6:	0f be       	out	0x3f, r0	; 63
 ae8:	cd bf       	out	0x3d, r28	; 61
 aea:	df 91       	pop	r29
 aec:	cf 91       	pop	r28
 aee:	1f 91       	pop	r17
 af0:	0f 91       	pop	r16
 af2:	ff 90       	pop	r15
 af4:	ef 90       	pop	r14
 af6:	df 90       	pop	r13
 af8:	cf 90       	pop	r12
 afa:	08 95       	ret

00000afc <main>:
 afc:	cf 93       	push	r28
 afe:	df 93       	push	r29
 b00:	cd b7       	in	r28, 0x3d	; 61
 b02:	de b7       	in	r29, 0x3e	; 62
 b04:	69 97       	sbiw	r28, 0x19	; 25
 b06:	0f b6       	in	r0, 0x3f	; 63
 b08:	f8 94       	cli
 b0a:	de bf       	out	0x3e, r29	; 62
 b0c:	0f be       	out	0x3f, r0	; 63
 b0e:	cd bf       	out	0x3d, r28	; 61
 b10:	6d e1       	ldi	r22, 0x1D	; 29
 b12:	ce 01       	movw	r24, r28
 b14:	46 96       	adiw	r24, 0x16	; 22
 b16:	0e 94 11 04 	call	0x822	; 0x822 <_ZN7atmicro13DigitalOutputC1ENS_3PINE>
 b1a:	ce 01       	movw	r24, r28
 b1c:	46 96       	adiw	r24, 0x16	; 22
 b1e:	0e 94 1a 04 	call	0x834	; 0x834 <_ZN7atmicro13DigitalOutput2onEv>
 b22:	60 e0       	ldi	r22, 0x00	; 0
 b24:	ce 01       	movw	r24, r28
 b26:	0f 96       	adiw	r24, 0x0f	; 15
 b28:	0e 94 50 02 	call	0x4a0	; 0x4a0 <_ZN7atmicro11AnalogInputC1ENS_10ADCchannelE>
 b2c:	be 01       	movw	r22, r28
 b2e:	61 5f       	subi	r22, 0xF1	; 241
 b30:	7f 4f       	sbci	r23, 0xFF	; 255
 b32:	8e e9       	ldi	r24, 0x9E	; 158
 b34:	90 e0       	ldi	r25, 0x00	; 0
 b36:	0e 94 cd 00 	call	0x19a	; 0x19a <_ZN7atmicro13Accelerometer11registerADCERNS_11AnalogInputE>
 b3a:	61 e0       	ldi	r22, 0x01	; 1
 b3c:	ce 01       	movw	r24, r28
 b3e:	08 96       	adiw	r24, 0x08	; 8
 b40:	0e 94 50 02 	call	0x4a0	; 0x4a0 <_ZN7atmicro11AnalogInputC1ENS_10ADCchannelE>
 b44:	be 01       	movw	r22, r28
 b46:	68 5f       	subi	r22, 0xF8	; 248
 b48:	7f 4f       	sbci	r23, 0xFF	; 255
 b4a:	8e e9       	ldi	r24, 0x9E	; 158
 b4c:	90 e0       	ldi	r25, 0x00	; 0
 b4e:	0e 94 cd 00 	call	0x19a	; 0x19a <_ZN7atmicro13Accelerometer11registerADCERNS_11AnalogInputE>
 b52:	62 e0       	ldi	r22, 0x02	; 2
 b54:	ce 01       	movw	r24, r28
 b56:	01 96       	adiw	r24, 0x01	; 1
 b58:	0e 94 50 02 	call	0x4a0	; 0x4a0 <_ZN7atmicro11AnalogInputC1ENS_10ADCchannelE>
 b5c:	be 01       	movw	r22, r28
 b5e:	6f 5f       	subi	r22, 0xFF	; 255
 b60:	7f 4f       	sbci	r23, 0xFF	; 255
 b62:	8e e9       	ldi	r24, 0x9E	; 158
 b64:	90 e0       	ldi	r25, 0x00	; 0
 b66:	0e 94 cd 00 	call	0x19a	; 0x19a <_ZN7atmicro13Accelerometer11registerADCERNS_11AnalogInputE>
 b6a:	8e e9       	ldi	r24, 0x9E	; 158
 b6c:	90 e0       	ldi	r25, 0x00	; 0
 b6e:	0e 94 ae 01 	call	0x35c	; 0x35c <_ZN7atmicro13Accelerometer8startADCEv>
 b72:	ff cf       	rjmp	.-2      	; 0xb72 <main+0x76>

00000b74 <__vector_16>:
 b74:	1f 92       	push	r1
 b76:	0f 92       	push	r0
 b78:	0f b6       	in	r0, 0x3f	; 63
 b7a:	0f 92       	push	r0
 b7c:	11 24       	eor	r1, r1
 b7e:	2f 93       	push	r18
 b80:	3f 93       	push	r19
 b82:	4f 93       	push	r20
 b84:	5f 93       	push	r21
 b86:	6f 93       	push	r22
 b88:	7f 93       	push	r23
 b8a:	8f 93       	push	r24
 b8c:	9f 93       	push	r25
 b8e:	af 93       	push	r26
 b90:	bf 93       	push	r27
 b92:	cf 93       	push	r28
 b94:	df 93       	push	r29
 b96:	ef 93       	push	r30
 b98:	ff 93       	push	r31
 b9a:	8e e9       	ldi	r24, 0x9E	; 158
 b9c:	90 e0       	ldi	r25, 0x00	; 0
 b9e:	0e 94 f1 00 	call	0x1e2	; 0x1e2 <_ZN7atmicro13Accelerometer10processADCEv>
 ba2:	ce e9       	ldi	r28, 0x9E	; 158
 ba4:	d0 e0       	ldi	r29, 0x00	; 0
 ba6:	28 81       	ld	r18, Y
 ba8:	39 81       	ldd	r19, Y+1	; 0x01
 baa:	40 e0       	ldi	r20, 0x00	; 0
 bac:	50 e0       	ldi	r21, 0x00	; 0
 bae:	60 e0       	ldi	r22, 0x00	; 0
 bb0:	70 e0       	ldi	r23, 0x00	; 0
 bb2:	80 e9       	ldi	r24, 0x90	; 144
 bb4:	90 e0       	ldi	r25, 0x00	; 0
 bb6:	0e 94 4d 05 	call	0xa9a	; 0xa9a <_ZN7atmicro15ParallelTextLCD5printEiii>
 bba:	2a 81       	ldd	r18, Y+2	; 0x02
 bbc:	3b 81       	ldd	r19, Y+3	; 0x03
 bbe:	40 e0       	ldi	r20, 0x00	; 0
 bc0:	50 e0       	ldi	r21, 0x00	; 0
 bc2:	65 e0       	ldi	r22, 0x05	; 5
 bc4:	70 e0       	ldi	r23, 0x00	; 0
 bc6:	80 e9       	ldi	r24, 0x90	; 144
 bc8:	90 e0       	ldi	r25, 0x00	; 0
 bca:	0e 94 4d 05 	call	0xa9a	; 0xa9a <_ZN7atmicro15ParallelTextLCD5printEiii>
 bce:	2c 81       	ldd	r18, Y+4	; 0x04
 bd0:	3d 81       	ldd	r19, Y+5	; 0x05
 bd2:	40 e0       	ldi	r20, 0x00	; 0
 bd4:	50 e0       	ldi	r21, 0x00	; 0
 bd6:	6a e0       	ldi	r22, 0x0A	; 10
 bd8:	70 e0       	ldi	r23, 0x00	; 0
 bda:	80 e9       	ldi	r24, 0x90	; 144
 bdc:	90 e0       	ldi	r25, 0x00	; 0
 bde:	0e 94 4d 05 	call	0xa9a	; 0xa9a <_ZN7atmicro15ParallelTextLCD5printEiii>
 be2:	ff 91       	pop	r31
 be4:	ef 91       	pop	r30
 be6:	df 91       	pop	r29
 be8:	cf 91       	pop	r28
 bea:	bf 91       	pop	r27
 bec:	af 91       	pop	r26
 bee:	9f 91       	pop	r25
 bf0:	8f 91       	pop	r24
 bf2:	7f 91       	pop	r23
 bf4:	6f 91       	pop	r22
 bf6:	5f 91       	pop	r21
 bf8:	4f 91       	pop	r20
 bfa:	3f 91       	pop	r19
 bfc:	2f 91       	pop	r18
 bfe:	0f 90       	pop	r0
 c00:	0f be       	out	0x3f, r0	; 63
 c02:	0f 90       	pop	r0
 c04:	1f 90       	pop	r1
 c06:	18 95       	reti

00000c08 <_GLOBAL__sub_I_ac>:
 c08:	0f 93       	push	r16
 c0a:	8e e9       	ldi	r24, 0x9E	; 158
 c0c:	90 e0       	ldi	r25, 0x00	; 0
 c0e:	0e 94 c0 01 	call	0x380	; 0x380 <_ZN7atmicro13AccelerometerC1Ev>
 c12:	0a e1       	ldi	r16, 0x1A	; 26
 c14:	2b e1       	ldi	r18, 0x1B	; 27
 c16:	4c e1       	ldi	r20, 0x1C	; 28
 c18:	68 e0       	ldi	r22, 0x08	; 8
 c1a:	80 e9       	ldi	r24, 0x90	; 144
 c1c:	90 e0       	ldi	r25, 0x00	; 0
 c1e:	0e 94 dc 04 	call	0x9b8	; 0x9b8 <_ZN7atmicro15ParallelTextLCDC1ENS_4PORTENS_3PINES2_S2_>
 c22:	0f 91       	pop	r16
 c24:	08 95       	ret

00000c26 <_GLOBAL__sub_D_ac>:
 c26:	80 e9       	ldi	r24, 0x90	; 144
 c28:	90 e0       	ldi	r25, 0x00	; 0
 c2a:	0e 94 26 04 	call	0x84c	; 0x84c <_ZN7atmicro15ParallelTextLCDD1Ev>
 c2e:	8e e9       	ldi	r24, 0x9E	; 158
 c30:	90 e0       	ldi	r25, 0x00	; 0
 c32:	0c 94 05 02 	jmp	0x40a	; 0x40a <_ZN7atmicro13AccelerometerD1Ev>

00000c36 <__udivmodhi4>:
 c36:	aa 1b       	sub	r26, r26
 c38:	bb 1b       	sub	r27, r27
 c3a:	51 e1       	ldi	r21, 0x11	; 17
 c3c:	07 c0       	rjmp	.+14     	; 0xc4c <__udivmodhi4_ep>

00000c3e <__udivmodhi4_loop>:
 c3e:	aa 1f       	adc	r26, r26
 c40:	bb 1f       	adc	r27, r27
 c42:	a6 17       	cp	r26, r22
 c44:	b7 07       	cpc	r27, r23
 c46:	10 f0       	brcs	.+4      	; 0xc4c <__udivmodhi4_ep>
 c48:	a6 1b       	sub	r26, r22
 c4a:	b7 0b       	sbc	r27, r23

00000c4c <__udivmodhi4_ep>:
 c4c:	88 1f       	adc	r24, r24
 c4e:	99 1f       	adc	r25, r25
 c50:	5a 95       	dec	r21
 c52:	a9 f7       	brne	.-22     	; 0xc3e <__udivmodhi4_loop>
 c54:	80 95       	com	r24
 c56:	90 95       	com	r25
 c58:	bc 01       	movw	r22, r24
 c5a:	cd 01       	movw	r24, r26
 c5c:	08 95       	ret

00000c5e <__divmodhi4>:
 c5e:	97 fb       	bst	r25, 7
 c60:	07 2e       	mov	r0, r23
 c62:	16 f4       	brtc	.+4      	; 0xc68 <__divmodhi4+0xa>
 c64:	00 94       	com	r0
 c66:	07 d0       	rcall	.+14     	; 0xc76 <__divmodhi4_neg1>
 c68:	77 fd       	sbrc	r23, 7
 c6a:	09 d0       	rcall	.+18     	; 0xc7e <__divmodhi4_neg2>
 c6c:	0e 94 1b 06 	call	0xc36	; 0xc36 <__udivmodhi4>
 c70:	07 fc       	sbrc	r0, 7
 c72:	05 d0       	rcall	.+10     	; 0xc7e <__divmodhi4_neg2>
 c74:	3e f4       	brtc	.+14     	; 0xc84 <__divmodhi4_exit>

00000c76 <__divmodhi4_neg1>:
 c76:	90 95       	com	r25
 c78:	81 95       	neg	r24
 c7a:	9f 4f       	sbci	r25, 0xFF	; 255
 c7c:	08 95       	ret

00000c7e <__divmodhi4_neg2>:
 c7e:	70 95       	com	r23
 c80:	61 95       	neg	r22
 c82:	7f 4f       	sbci	r23, 0xFF	; 255

00000c84 <__divmodhi4_exit>:
 c84:	08 95       	ret

00000c86 <__tablejump2__>:
 c86:	ee 0f       	add	r30, r30
 c88:	ff 1f       	adc	r31, r31
 c8a:	05 90       	lpm	r0, Z+
 c8c:	f4 91       	lpm	r31, Z
 c8e:	e0 2d       	mov	r30, r0
 c90:	09 94       	ijmp

00000c92 <calloc>:
 c92:	0f 93       	push	r16
 c94:	1f 93       	push	r17
 c96:	cf 93       	push	r28
 c98:	df 93       	push	r29
 c9a:	86 9f       	mul	r24, r22
 c9c:	80 01       	movw	r16, r0
 c9e:	87 9f       	mul	r24, r23
 ca0:	10 0d       	add	r17, r0
 ca2:	96 9f       	mul	r25, r22
 ca4:	10 0d       	add	r17, r0
 ca6:	11 24       	eor	r1, r1
 ca8:	c8 01       	movw	r24, r16
 caa:	0e 94 65 06 	call	0xcca	; 0xcca <malloc>
 cae:	ec 01       	movw	r28, r24
 cb0:	00 97       	sbiw	r24, 0x00	; 0
 cb2:	29 f0       	breq	.+10     	; 0xcbe <calloc+0x2c>
 cb4:	a8 01       	movw	r20, r16
 cb6:	60 e0       	ldi	r22, 0x00	; 0
 cb8:	70 e0       	ldi	r23, 0x00	; 0
 cba:	0e 94 92 07 	call	0xf24	; 0xf24 <memset>
 cbe:	ce 01       	movw	r24, r28
 cc0:	df 91       	pop	r29
 cc2:	cf 91       	pop	r28
 cc4:	1f 91       	pop	r17
 cc6:	0f 91       	pop	r16
 cc8:	08 95       	ret

00000cca <malloc>:
 cca:	cf 93       	push	r28
 ccc:	df 93       	push	r29
 cce:	82 30       	cpi	r24, 0x02	; 2
 cd0:	91 05       	cpc	r25, r1
 cd2:	10 f4       	brcc	.+4      	; 0xcd8 <malloc+0xe>
 cd4:	82 e0       	ldi	r24, 0x02	; 2
 cd6:	90 e0       	ldi	r25, 0x00	; 0
 cd8:	e0 91 ca 00 	lds	r30, 0x00CA	; 0x8000ca <__flp>
 cdc:	f0 91 cb 00 	lds	r31, 0x00CB	; 0x8000cb <__flp+0x1>
 ce0:	20 e0       	ldi	r18, 0x00	; 0
 ce2:	30 e0       	ldi	r19, 0x00	; 0
 ce4:	c0 e0       	ldi	r28, 0x00	; 0
 ce6:	d0 e0       	ldi	r29, 0x00	; 0
 ce8:	30 97       	sbiw	r30, 0x00	; 0
 cea:	11 f1       	breq	.+68     	; 0xd30 <malloc+0x66>
 cec:	40 81       	ld	r20, Z
 cee:	51 81       	ldd	r21, Z+1	; 0x01
 cf0:	48 17       	cp	r20, r24
 cf2:	59 07       	cpc	r21, r25
 cf4:	c0 f0       	brcs	.+48     	; 0xd26 <malloc+0x5c>
 cf6:	48 17       	cp	r20, r24
 cf8:	59 07       	cpc	r21, r25
 cfa:	61 f4       	brne	.+24     	; 0xd14 <malloc+0x4a>
 cfc:	82 81       	ldd	r24, Z+2	; 0x02
 cfe:	93 81       	ldd	r25, Z+3	; 0x03
 d00:	20 97       	sbiw	r28, 0x00	; 0
 d02:	19 f0       	breq	.+6      	; 0xd0a <malloc+0x40>
 d04:	9b 83       	std	Y+3, r25	; 0x03
 d06:	8a 83       	std	Y+2, r24	; 0x02
 d08:	2b c0       	rjmp	.+86     	; 0xd60 <malloc+0x96>
 d0a:	90 93 cb 00 	sts	0x00CB, r25	; 0x8000cb <__flp+0x1>
 d0e:	80 93 ca 00 	sts	0x00CA, r24	; 0x8000ca <__flp>
 d12:	26 c0       	rjmp	.+76     	; 0xd60 <malloc+0x96>
 d14:	21 15       	cp	r18, r1
 d16:	31 05       	cpc	r19, r1
 d18:	19 f0       	breq	.+6      	; 0xd20 <malloc+0x56>
 d1a:	42 17       	cp	r20, r18
 d1c:	53 07       	cpc	r21, r19
 d1e:	18 f4       	brcc	.+6      	; 0xd26 <malloc+0x5c>
 d20:	9a 01       	movw	r18, r20
 d22:	be 01       	movw	r22, r28
 d24:	df 01       	movw	r26, r30
 d26:	ef 01       	movw	r28, r30
 d28:	02 80       	ldd	r0, Z+2	; 0x02
 d2a:	f3 81       	ldd	r31, Z+3	; 0x03
 d2c:	e0 2d       	mov	r30, r0
 d2e:	dc cf       	rjmp	.-72     	; 0xce8 <malloc+0x1e>
 d30:	21 15       	cp	r18, r1
 d32:	31 05       	cpc	r19, r1
 d34:	09 f1       	breq	.+66     	; 0xd78 <malloc+0xae>
 d36:	28 1b       	sub	r18, r24
 d38:	39 0b       	sbc	r19, r25
 d3a:	24 30       	cpi	r18, 0x04	; 4
 d3c:	31 05       	cpc	r19, r1
 d3e:	90 f4       	brcc	.+36     	; 0xd64 <malloc+0x9a>
 d40:	12 96       	adiw	r26, 0x02	; 2
 d42:	8d 91       	ld	r24, X+
 d44:	9c 91       	ld	r25, X
 d46:	13 97       	sbiw	r26, 0x03	; 3
 d48:	61 15       	cp	r22, r1
 d4a:	71 05       	cpc	r23, r1
 d4c:	21 f0       	breq	.+8      	; 0xd56 <malloc+0x8c>
 d4e:	fb 01       	movw	r30, r22
 d50:	93 83       	std	Z+3, r25	; 0x03
 d52:	82 83       	std	Z+2, r24	; 0x02
 d54:	04 c0       	rjmp	.+8      	; 0xd5e <malloc+0x94>
 d56:	90 93 cb 00 	sts	0x00CB, r25	; 0x8000cb <__flp+0x1>
 d5a:	80 93 ca 00 	sts	0x00CA, r24	; 0x8000ca <__flp>
 d5e:	fd 01       	movw	r30, r26
 d60:	32 96       	adiw	r30, 0x02	; 2
 d62:	44 c0       	rjmp	.+136    	; 0xdec <malloc+0x122>
 d64:	fd 01       	movw	r30, r26
 d66:	e2 0f       	add	r30, r18
 d68:	f3 1f       	adc	r31, r19
 d6a:	81 93       	st	Z+, r24
 d6c:	91 93       	st	Z+, r25
 d6e:	22 50       	subi	r18, 0x02	; 2
 d70:	31 09       	sbc	r19, r1
 d72:	2d 93       	st	X+, r18
 d74:	3c 93       	st	X, r19
 d76:	3a c0       	rjmp	.+116    	; 0xdec <malloc+0x122>
 d78:	20 91 c8 00 	lds	r18, 0x00C8	; 0x8000c8 <__brkval>
 d7c:	30 91 c9 00 	lds	r19, 0x00C9	; 0x8000c9 <__brkval+0x1>
 d80:	23 2b       	or	r18, r19
 d82:	41 f4       	brne	.+16     	; 0xd94 <malloc+0xca>
 d84:	20 91 62 00 	lds	r18, 0x0062	; 0x800062 <__malloc_heap_start>
 d88:	30 91 63 00 	lds	r19, 0x0063	; 0x800063 <__malloc_heap_start+0x1>
 d8c:	30 93 c9 00 	sts	0x00C9, r19	; 0x8000c9 <__brkval+0x1>
 d90:	20 93 c8 00 	sts	0x00C8, r18	; 0x8000c8 <__brkval>
 d94:	20 91 60 00 	lds	r18, 0x0060	; 0x800060 <__data_start>
 d98:	30 91 61 00 	lds	r19, 0x0061	; 0x800061 <__data_start+0x1>
 d9c:	21 15       	cp	r18, r1
 d9e:	31 05       	cpc	r19, r1
 da0:	41 f4       	brne	.+16     	; 0xdb2 <malloc+0xe8>
 da2:	2d b7       	in	r18, 0x3d	; 61
 da4:	3e b7       	in	r19, 0x3e	; 62
 da6:	40 91 64 00 	lds	r20, 0x0064	; 0x800064 <__malloc_margin>
 daa:	50 91 65 00 	lds	r21, 0x0065	; 0x800065 <__malloc_margin+0x1>
 dae:	24 1b       	sub	r18, r20
 db0:	35 0b       	sbc	r19, r21
 db2:	e0 91 c8 00 	lds	r30, 0x00C8	; 0x8000c8 <__brkval>
 db6:	f0 91 c9 00 	lds	r31, 0x00C9	; 0x8000c9 <__brkval+0x1>
 dba:	e2 17       	cp	r30, r18
 dbc:	f3 07       	cpc	r31, r19
 dbe:	a0 f4       	brcc	.+40     	; 0xde8 <malloc+0x11e>
 dc0:	2e 1b       	sub	r18, r30
 dc2:	3f 0b       	sbc	r19, r31
 dc4:	28 17       	cp	r18, r24
 dc6:	39 07       	cpc	r19, r25
 dc8:	78 f0       	brcs	.+30     	; 0xde8 <malloc+0x11e>
 dca:	ac 01       	movw	r20, r24
 dcc:	4e 5f       	subi	r20, 0xFE	; 254
 dce:	5f 4f       	sbci	r21, 0xFF	; 255
 dd0:	24 17       	cp	r18, r20
 dd2:	35 07       	cpc	r19, r21
 dd4:	48 f0       	brcs	.+18     	; 0xde8 <malloc+0x11e>
 dd6:	4e 0f       	add	r20, r30
 dd8:	5f 1f       	adc	r21, r31
 dda:	50 93 c9 00 	sts	0x00C9, r21	; 0x8000c9 <__brkval+0x1>
 dde:	40 93 c8 00 	sts	0x00C8, r20	; 0x8000c8 <__brkval>
 de2:	81 93       	st	Z+, r24
 de4:	91 93       	st	Z+, r25
 de6:	02 c0       	rjmp	.+4      	; 0xdec <malloc+0x122>
 de8:	e0 e0       	ldi	r30, 0x00	; 0
 dea:	f0 e0       	ldi	r31, 0x00	; 0
 dec:	cf 01       	movw	r24, r30
 dee:	df 91       	pop	r29
 df0:	cf 91       	pop	r28
 df2:	08 95       	ret

00000df4 <free>:
 df4:	0f 93       	push	r16
 df6:	1f 93       	push	r17
 df8:	cf 93       	push	r28
 dfa:	df 93       	push	r29
 dfc:	00 97       	sbiw	r24, 0x00	; 0
 dfe:	09 f4       	brne	.+2      	; 0xe02 <free+0xe>
 e00:	8c c0       	rjmp	.+280    	; 0xf1a <free+0x126>
 e02:	fc 01       	movw	r30, r24
 e04:	32 97       	sbiw	r30, 0x02	; 2
 e06:	13 82       	std	Z+3, r1	; 0x03
 e08:	12 82       	std	Z+2, r1	; 0x02
 e0a:	00 91 ca 00 	lds	r16, 0x00CA	; 0x8000ca <__flp>
 e0e:	10 91 cb 00 	lds	r17, 0x00CB	; 0x8000cb <__flp+0x1>
 e12:	01 15       	cp	r16, r1
 e14:	11 05       	cpc	r17, r1
 e16:	81 f4       	brne	.+32     	; 0xe38 <free+0x44>
 e18:	20 81       	ld	r18, Z
 e1a:	31 81       	ldd	r19, Z+1	; 0x01
 e1c:	82 0f       	add	r24, r18
 e1e:	93 1f       	adc	r25, r19
 e20:	20 91 c8 00 	lds	r18, 0x00C8	; 0x8000c8 <__brkval>
 e24:	30 91 c9 00 	lds	r19, 0x00C9	; 0x8000c9 <__brkval+0x1>
 e28:	28 17       	cp	r18, r24
 e2a:	39 07       	cpc	r19, r25
 e2c:	79 f5       	brne	.+94     	; 0xe8c <free+0x98>
 e2e:	f0 93 c9 00 	sts	0x00C9, r31	; 0x8000c9 <__brkval+0x1>
 e32:	e0 93 c8 00 	sts	0x00C8, r30	; 0x8000c8 <__brkval>
 e36:	71 c0       	rjmp	.+226    	; 0xf1a <free+0x126>
 e38:	d8 01       	movw	r26, r16
 e3a:	40 e0       	ldi	r20, 0x00	; 0
 e3c:	50 e0       	ldi	r21, 0x00	; 0
 e3e:	ae 17       	cp	r26, r30
 e40:	bf 07       	cpc	r27, r31
 e42:	50 f4       	brcc	.+20     	; 0xe58 <free+0x64>
 e44:	12 96       	adiw	r26, 0x02	; 2
 e46:	2d 91       	ld	r18, X+
 e48:	3c 91       	ld	r19, X
 e4a:	13 97       	sbiw	r26, 0x03	; 3
 e4c:	ad 01       	movw	r20, r26
 e4e:	21 15       	cp	r18, r1
 e50:	31 05       	cpc	r19, r1
 e52:	09 f1       	breq	.+66     	; 0xe96 <free+0xa2>
 e54:	d9 01       	movw	r26, r18
 e56:	f3 cf       	rjmp	.-26     	; 0xe3e <free+0x4a>
 e58:	9d 01       	movw	r18, r26
 e5a:	da 01       	movw	r26, r20
 e5c:	33 83       	std	Z+3, r19	; 0x03
 e5e:	22 83       	std	Z+2, r18	; 0x02
 e60:	60 81       	ld	r22, Z
 e62:	71 81       	ldd	r23, Z+1	; 0x01
 e64:	86 0f       	add	r24, r22
 e66:	97 1f       	adc	r25, r23
 e68:	82 17       	cp	r24, r18
 e6a:	93 07       	cpc	r25, r19
 e6c:	69 f4       	brne	.+26     	; 0xe88 <free+0x94>
 e6e:	ec 01       	movw	r28, r24
 e70:	28 81       	ld	r18, Y
 e72:	39 81       	ldd	r19, Y+1	; 0x01
 e74:	26 0f       	add	r18, r22
 e76:	37 1f       	adc	r19, r23
 e78:	2e 5f       	subi	r18, 0xFE	; 254
 e7a:	3f 4f       	sbci	r19, 0xFF	; 255
 e7c:	31 83       	std	Z+1, r19	; 0x01
 e7e:	20 83       	st	Z, r18
 e80:	8a 81       	ldd	r24, Y+2	; 0x02
 e82:	9b 81       	ldd	r25, Y+3	; 0x03
 e84:	93 83       	std	Z+3, r25	; 0x03
 e86:	82 83       	std	Z+2, r24	; 0x02
 e88:	45 2b       	or	r20, r21
 e8a:	29 f4       	brne	.+10     	; 0xe96 <free+0xa2>
 e8c:	f0 93 cb 00 	sts	0x00CB, r31	; 0x8000cb <__flp+0x1>
 e90:	e0 93 ca 00 	sts	0x00CA, r30	; 0x8000ca <__flp>
 e94:	42 c0       	rjmp	.+132    	; 0xf1a <free+0x126>
 e96:	13 96       	adiw	r26, 0x03	; 3
 e98:	fc 93       	st	X, r31
 e9a:	ee 93       	st	-X, r30
 e9c:	12 97       	sbiw	r26, 0x02	; 2
 e9e:	ed 01       	movw	r28, r26
 ea0:	49 91       	ld	r20, Y+
 ea2:	59 91       	ld	r21, Y+
 ea4:	9e 01       	movw	r18, r28
 ea6:	24 0f       	add	r18, r20
 ea8:	35 1f       	adc	r19, r21
 eaa:	e2 17       	cp	r30, r18
 eac:	f3 07       	cpc	r31, r19
 eae:	71 f4       	brne	.+28     	; 0xecc <free+0xd8>
 eb0:	80 81       	ld	r24, Z
 eb2:	91 81       	ldd	r25, Z+1	; 0x01
 eb4:	84 0f       	add	r24, r20
 eb6:	95 1f       	adc	r25, r21
 eb8:	02 96       	adiw	r24, 0x02	; 2
 eba:	11 96       	adiw	r26, 0x01	; 1
 ebc:	9c 93       	st	X, r25
 ebe:	8e 93       	st	-X, r24
 ec0:	82 81       	ldd	r24, Z+2	; 0x02
 ec2:	93 81       	ldd	r25, Z+3	; 0x03
 ec4:	13 96       	adiw	r26, 0x03	; 3
 ec6:	9c 93       	st	X, r25
 ec8:	8e 93       	st	-X, r24
 eca:	12 97       	sbiw	r26, 0x02	; 2
 ecc:	e0 e0       	ldi	r30, 0x00	; 0
 ece:	f0 e0       	ldi	r31, 0x00	; 0
 ed0:	d8 01       	movw	r26, r16
 ed2:	12 96       	adiw	r26, 0x02	; 2
 ed4:	8d 91       	ld	r24, X+
 ed6:	9c 91       	ld	r25, X
 ed8:	13 97       	sbiw	r26, 0x03	; 3
 eda:	00 97       	sbiw	r24, 0x00	; 0
 edc:	19 f0       	breq	.+6      	; 0xee4 <free+0xf0>
 ede:	f8 01       	movw	r30, r16
 ee0:	8c 01       	movw	r16, r24
 ee2:	f6 cf       	rjmp	.-20     	; 0xed0 <free+0xdc>
 ee4:	8d 91       	ld	r24, X+
 ee6:	9c 91       	ld	r25, X
 ee8:	98 01       	movw	r18, r16
 eea:	2e 5f       	subi	r18, 0xFE	; 254
 eec:	3f 4f       	sbci	r19, 0xFF	; 255
 eee:	82 0f       	add	r24, r18
 ef0:	93 1f       	adc	r25, r19
 ef2:	20 91 c8 00 	lds	r18, 0x00C8	; 0x8000c8 <__brkval>
 ef6:	30 91 c9 00 	lds	r19, 0x00C9	; 0x8000c9 <__brkval+0x1>
 efa:	28 17       	cp	r18, r24
 efc:	39 07       	cpc	r19, r25
 efe:	69 f4       	brne	.+26     	; 0xf1a <free+0x126>
 f00:	30 97       	sbiw	r30, 0x00	; 0
 f02:	29 f4       	brne	.+10     	; 0xf0e <free+0x11a>
 f04:	10 92 cb 00 	sts	0x00CB, r1	; 0x8000cb <__flp+0x1>
 f08:	10 92 ca 00 	sts	0x00CA, r1	; 0x8000ca <__flp>
 f0c:	02 c0       	rjmp	.+4      	; 0xf12 <free+0x11e>
 f0e:	13 82       	std	Z+3, r1	; 0x03
 f10:	12 82       	std	Z+2, r1	; 0x02
 f12:	10 93 c9 00 	sts	0x00C9, r17	; 0x8000c9 <__brkval+0x1>
 f16:	00 93 c8 00 	sts	0x00C8, r16	; 0x8000c8 <__brkval>
 f1a:	df 91       	pop	r29
 f1c:	cf 91       	pop	r28
 f1e:	1f 91       	pop	r17
 f20:	0f 91       	pop	r16
 f22:	08 95       	ret

00000f24 <memset>:
 f24:	dc 01       	movw	r26, r24
 f26:	01 c0       	rjmp	.+2      	; 0xf2a <memset+0x6>
 f28:	6d 93       	st	X+, r22
 f2a:	41 50       	subi	r20, 0x01	; 1
 f2c:	50 40       	sbci	r21, 0x00	; 0
 f2e:	e0 f7       	brcc	.-8      	; 0xf28 <memset+0x4>
 f30:	08 95       	ret

00000f32 <__itoa_ncheck>:
 f32:	bb 27       	eor	r27, r27
 f34:	4a 30       	cpi	r20, 0x0A	; 10
 f36:	31 f4       	brne	.+12     	; 0xf44 <__itoa_ncheck+0x12>
 f38:	99 23       	and	r25, r25
 f3a:	22 f4       	brpl	.+8      	; 0xf44 <__itoa_ncheck+0x12>
 f3c:	bd e2       	ldi	r27, 0x2D	; 45
 f3e:	90 95       	com	r25
 f40:	81 95       	neg	r24
 f42:	9f 4f       	sbci	r25, 0xFF	; 255
 f44:	0c 94 a5 07 	jmp	0xf4a	; 0xf4a <__utoa_common>

00000f48 <__utoa_ncheck>:
 f48:	bb 27       	eor	r27, r27

00000f4a <__utoa_common>:
 f4a:	fb 01       	movw	r30, r22
 f4c:	55 27       	eor	r21, r21
 f4e:	aa 27       	eor	r26, r26
 f50:	88 0f       	add	r24, r24
 f52:	99 1f       	adc	r25, r25
 f54:	aa 1f       	adc	r26, r26
 f56:	a4 17       	cp	r26, r20
 f58:	10 f0       	brcs	.+4      	; 0xf5e <__utoa_common+0x14>
 f5a:	a4 1b       	sub	r26, r20
 f5c:	83 95       	inc	r24
 f5e:	50 51       	subi	r21, 0x10	; 16
 f60:	b9 f7       	brne	.-18     	; 0xf50 <__utoa_common+0x6>
 f62:	a0 5d       	subi	r26, 0xD0	; 208
 f64:	aa 33       	cpi	r26, 0x3A	; 58
 f66:	08 f0       	brcs	.+2      	; 0xf6a <__utoa_common+0x20>
 f68:	a9 5d       	subi	r26, 0xD9	; 217
 f6a:	a1 93       	st	Z+, r26
 f6c:	00 97       	sbiw	r24, 0x00	; 0
 f6e:	79 f7       	brne	.-34     	; 0xf4e <__utoa_common+0x4>
 f70:	b1 11       	cpse	r27, r1
 f72:	b1 93       	st	Z+, r27
 f74:	11 92       	st	Z+, r1
 f76:	cb 01       	movw	r24, r22
 f78:	0c 94 be 07 	jmp	0xf7c	; 0xf7c <strrev>

00000f7c <strrev>:
 f7c:	dc 01       	movw	r26, r24
 f7e:	fc 01       	movw	r30, r24
 f80:	67 2f       	mov	r22, r23
 f82:	71 91       	ld	r23, Z+
 f84:	77 23       	and	r23, r23
 f86:	e1 f7       	brne	.-8      	; 0xf80 <strrev+0x4>
 f88:	32 97       	sbiw	r30, 0x02	; 2
 f8a:	04 c0       	rjmp	.+8      	; 0xf94 <strrev+0x18>
 f8c:	7c 91       	ld	r23, X
 f8e:	6d 93       	st	X+, r22
 f90:	70 83       	st	Z, r23
 f92:	62 91       	ld	r22, -Z
 f94:	ae 17       	cp	r26, r30
 f96:	bf 07       	cpc	r27, r31
 f98:	c8 f3       	brcs	.-14     	; 0xf8c <strrev+0x10>
 f9a:	08 95       	ret

00000f9c <__do_global_dtors>:
 f9c:	10 e0       	ldi	r17, 0x00	; 0
 f9e:	cb e2       	ldi	r28, 0x2B	; 43
 fa0:	d0 e0       	ldi	r29, 0x00	; 0
 fa2:	04 c0       	rjmp	.+8      	; 0xfac <__do_global_dtors+0x10>
 fa4:	fe 01       	movw	r30, r28
 fa6:	0e 94 43 06 	call	0xc86	; 0xc86 <__tablejump2__>
 faa:	21 96       	adiw	r28, 0x01	; 1
 fac:	cc 32       	cpi	r28, 0x2C	; 44
 fae:	d1 07       	cpc	r29, r17
 fb0:	c9 f7       	brne	.-14     	; 0xfa4 <__do_global_dtors+0x8>
 fb2:	f8 94       	cli

00000fb4 <__stop_program>:
 fb4:	ff cf       	rjmp	.-2      	; 0xfb4 <__stop_program>
