
MicrocontrollerSystem.elf:     file format elf32-avr

Sections:
Idx Name          Size      VMA       LMA       File off  Algn
  0 .text         000003a4  00000000  00000000  00000054  2**1
                  CONTENTS, ALLOC, LOAD, READONLY, CODE
  1 .data         00000000  00800060  00800060  000003f8  2**0
                  CONTENTS, ALLOC, LOAD, DATA
  2 .comment      00000030  00000000  00000000  000003f8  2**0
                  CONTENTS, READONLY
  3 .note.gnu.avr.deviceinfo 0000003c  00000000  00000000  00000428  2**2
                  CONTENTS, READONLY

Disassembly of section .text:

00000000 <__vectors>:
   0:	0c 94 2a 00 	jmp	0x54	; 0x54 <__ctors_end>
   4:	0c 94 3f 00 	jmp	0x7e	; 0x7e <__bad_interrupt>
   8:	0c 94 3f 00 	jmp	0x7e	; 0x7e <__bad_interrupt>
   c:	0c 94 3f 00 	jmp	0x7e	; 0x7e <__bad_interrupt>
  10:	0c 94 3f 00 	jmp	0x7e	; 0x7e <__bad_interrupt>
  14:	0c 94 3f 00 	jmp	0x7e	; 0x7e <__bad_interrupt>
  18:	0c 94 3f 00 	jmp	0x7e	; 0x7e <__bad_interrupt>
  1c:	0c 94 3f 00 	jmp	0x7e	; 0x7e <__bad_interrupt>
  20:	0c 94 3f 00 	jmp	0x7e	; 0x7e <__bad_interrupt>
  24:	0c 94 3f 00 	jmp	0x7e	; 0x7e <__bad_interrupt>
  28:	0c 94 3f 00 	jmp	0x7e	; 0x7e <__bad_interrupt>
  2c:	0c 94 3f 00 	jmp	0x7e	; 0x7e <__bad_interrupt>
  30:	0c 94 3f 00 	jmp	0x7e	; 0x7e <__bad_interrupt>
  34:	0c 94 3f 00 	jmp	0x7e	; 0x7e <__bad_interrupt>
  38:	0c 94 3f 00 	jmp	0x7e	; 0x7e <__bad_interrupt>
  3c:	0c 94 3f 00 	jmp	0x7e	; 0x7e <__bad_interrupt>
  40:	0c 94 3f 00 	jmp	0x7e	; 0x7e <__bad_interrupt>
  44:	0c 94 3f 00 	jmp	0x7e	; 0x7e <__bad_interrupt>
  48:	0c 94 3f 00 	jmp	0x7e	; 0x7e <__bad_interrupt>
  4c:	0c 94 3f 00 	jmp	0x7e	; 0x7e <__bad_interrupt>
  50:	0c 94 3f 00 	jmp	0x7e	; 0x7e <__bad_interrupt>

00000054 <__ctors_end>:
  54:	11 24       	eor	r1, r1
  56:	1f be       	out	0x3f, r1	; 63
  58:	cf e5       	ldi	r28, 0x5F	; 95
  5a:	d8 e0       	ldi	r29, 0x08	; 8
  5c:	de bf       	out	0x3e, r29	; 62
  5e:	cd bf       	out	0x3d, r28	; 61

00000060 <__do_copy_data>:
  60:	10 e0       	ldi	r17, 0x00	; 0
  62:	a0 e6       	ldi	r26, 0x60	; 96
  64:	b0 e0       	ldi	r27, 0x00	; 0
  66:	e4 ea       	ldi	r30, 0xA4	; 164
  68:	f3 e0       	ldi	r31, 0x03	; 3
  6a:	02 c0       	rjmp	.+4      	; 0x70 <__do_copy_data+0x10>
  6c:	05 90       	lpm	r0, Z+
  6e:	0d 92       	st	X+, r0
  70:	a0 36       	cpi	r26, 0x60	; 96
  72:	b1 07       	cpc	r27, r17
  74:	d9 f7       	brne	.-10     	; 0x6c <__do_copy_data+0xc>
  76:	0e 94 87 01 	call	0x30e	; 0x30e <main>
  7a:	0c 94 d0 01 	jmp	0x3a0	; 0x3a0 <_exit>

0000007e <__bad_interrupt>:
  7e:	0c 94 00 00 	jmp	0	; 0x0 <__vectors>

00000082 <_ZN8Integral6PinsetC1EiPNS_3PINE>:
  82:	fc 01       	movw	r30, r24
  84:	71 83       	std	Z+1, r23	; 0x01
  86:	60 83       	st	Z, r22
  88:	fa 01       	movw	r30, r20
  8a:	e6 0f       	add	r30, r22
  8c:	f7 1f       	adc	r31, r23
  8e:	dc 01       	movw	r26, r24
  90:	9d 01       	movw	r18, r26
  92:	28 1b       	sub	r18, r24
  94:	39 0b       	sbc	r19, r25
  96:	26 17       	cp	r18, r22
  98:	37 07       	cpc	r19, r23
  9a:	1c f4       	brge	.+6      	; 0xa2 <_ZN8Integral6PinsetC1EiPNS_3PINE+0x20>
  9c:	22 91       	ld	r18, -Z
  9e:	2d 93       	st	X+, r18
  a0:	f7 cf       	rjmp	.-18     	; 0x90 <_ZN8Integral6PinsetC1EiPNS_3PINE+0xe>
  a2:	08 95       	ret

000000a4 <_ZN8Integral6Pinset7putDataEj>:
  a4:	ef 92       	push	r14
  a6:	ff 92       	push	r15
  a8:	0f 93       	push	r16
  aa:	1f 93       	push	r17
  ac:	cf 93       	push	r28
  ae:	df 93       	push	r29
  b0:	8b 01       	movw	r16, r22
  b2:	ec 01       	movw	r28, r24
  b4:	7c 01       	movw	r14, r24
  b6:	84 e0       	ldi	r24, 0x04	; 4
  b8:	e8 0e       	add	r14, r24
  ba:	f1 1c       	adc	r15, r1
  bc:	61 e0       	ldi	r22, 0x01	; 1
  be:	88 81       	ld	r24, Y
  c0:	0e 94 ff 00 	call	0x1fe	; 0x1fe <_ZN8Integral6Device12setDirectionENS_3PINEb>
  c4:	00 ff       	sbrs	r16, 0
  c6:	02 c0       	rjmp	.+4      	; 0xcc <_ZN8Integral6Pinset7putDataEj+0x28>
  c8:	61 e0       	ldi	r22, 0x01	; 1
  ca:	01 c0       	rjmp	.+2      	; 0xce <_ZN8Integral6Pinset7putDataEj+0x2a>
  cc:	60 e0       	ldi	r22, 0x00	; 0
  ce:	88 81       	ld	r24, Y
  d0:	0e 94 77 00 	call	0xee	; 0xee <_ZN8Integral6Device9setStatusENS_3PINEb>
  d4:	16 95       	lsr	r17
  d6:	07 95       	ror	r16
  d8:	21 96       	adiw	r28, 0x01	; 1
  da:	ce 15       	cp	r28, r14
  dc:	df 05       	cpc	r29, r15
  de:	71 f7       	brne	.-36     	; 0xbc <_ZN8Integral6Pinset7putDataEj+0x18>
  e0:	df 91       	pop	r29
  e2:	cf 91       	pop	r28
  e4:	1f 91       	pop	r17
  e6:	0f 91       	pop	r16
  e8:	ff 90       	pop	r15
  ea:	ef 90       	pop	r14
  ec:	08 95       	ret

000000ee <_ZN8Integral6Device9setStatusENS_3PINEb>:
  ee:	66 23       	and	r22, r22
  f0:	09 f4       	brne	.+2      	; 0xf4 <_ZN8Integral6Device9setStatusENS_3PINEb+0x6>
  f2:	3f c0       	rjmp	.+126    	; 0x172 <_ZN8Integral6Device9setStatusENS_3PINEb+0x84>
  f4:	88 30       	cpi	r24, 0x08	; 8
  f6:	60 f4       	brcc	.+24     	; 0x110 <_ZN8Integral6Device9setStatusENS_3PINEb+0x22>
  f8:	4b b3       	in	r20, 0x1b	; 27
  fa:	21 e0       	ldi	r18, 0x01	; 1
  fc:	30 e0       	ldi	r19, 0x00	; 0
  fe:	b9 01       	movw	r22, r18
 100:	02 c0       	rjmp	.+4      	; 0x106 <_ZN8Integral6Device9setStatusENS_3PINEb+0x18>
 102:	66 0f       	add	r22, r22
 104:	77 1f       	adc	r23, r23
 106:	8a 95       	dec	r24
 108:	e2 f7       	brpl	.-8      	; 0x102 <_ZN8Integral6Device9setStatusENS_3PINEb+0x14>
 10a:	cb 01       	movw	r24, r22
 10c:	84 2b       	or	r24, r20
 10e:	3f c0       	rjmp	.+126    	; 0x18e <_ZN8Integral6Device9setStatusENS_3PINEb+0xa0>
 110:	98 ef       	ldi	r25, 0xF8	; 248
 112:	98 0f       	add	r25, r24
 114:	98 30       	cpi	r25, 0x08	; 8
 116:	60 f4       	brcc	.+24     	; 0x130 <_ZN8Integral6Device9setStatusENS_3PINEb+0x42>
 118:	48 b3       	in	r20, 0x18	; 24
 11a:	21 e0       	ldi	r18, 0x01	; 1
 11c:	30 e0       	ldi	r19, 0x00	; 0
 11e:	b9 01       	movw	r22, r18
 120:	02 c0       	rjmp	.+4      	; 0x126 <_ZN8Integral6Device9setStatusENS_3PINEb+0x38>
 122:	66 0f       	add	r22, r22
 124:	77 1f       	adc	r23, r23
 126:	9a 95       	dec	r25
 128:	e2 f7       	brpl	.-8      	; 0x122 <_ZN8Integral6Device9setStatusENS_3PINEb+0x34>
 12a:	cb 01       	movw	r24, r22
 12c:	84 2b       	or	r24, r20
 12e:	41 c0       	rjmp	.+130    	; 0x1b2 <_ZN8Integral6Device9setStatusENS_3PINEb+0xc4>
 130:	90 ef       	ldi	r25, 0xF0	; 240
 132:	98 0f       	add	r25, r24
 134:	98 30       	cpi	r25, 0x08	; 8
 136:	60 f4       	brcc	.+24     	; 0x150 <_ZN8Integral6Device9setStatusENS_3PINEb+0x62>
 138:	45 b3       	in	r20, 0x15	; 21
 13a:	21 e0       	ldi	r18, 0x01	; 1
 13c:	30 e0       	ldi	r19, 0x00	; 0
 13e:	b9 01       	movw	r22, r18
 140:	02 c0       	rjmp	.+4      	; 0x146 <_ZN8Integral6Device9setStatusENS_3PINEb+0x58>
 142:	66 0f       	add	r22, r22
 144:	77 1f       	adc	r23, r23
 146:	9a 95       	dec	r25
 148:	e2 f7       	brpl	.-8      	; 0x142 <_ZN8Integral6Device9setStatusENS_3PINEb+0x54>
 14a:	cb 01       	movw	r24, r22
 14c:	84 2b       	or	r24, r20
 14e:	43 c0       	rjmp	.+134    	; 0x1d6 <_ZN8Integral6Device9setStatusENS_3PINEb+0xe8>
 150:	98 ee       	ldi	r25, 0xE8	; 232
 152:	98 0f       	add	r25, r24
 154:	98 30       	cpi	r25, 0x08	; 8
 156:	08 f0       	brcs	.+2      	; 0x15a <_ZN8Integral6Device9setStatusENS_3PINEb+0x6c>
 158:	51 c0       	rjmp	.+162    	; 0x1fc <_ZN8Integral6Device9setStatusENS_3PINEb+0x10e>
 15a:	42 b3       	in	r20, 0x12	; 18
 15c:	21 e0       	ldi	r18, 0x01	; 1
 15e:	30 e0       	ldi	r19, 0x00	; 0
 160:	b9 01       	movw	r22, r18
 162:	02 c0       	rjmp	.+4      	; 0x168 <_ZN8Integral6Device9setStatusENS_3PINEb+0x7a>
 164:	66 0f       	add	r22, r22
 166:	77 1f       	adc	r23, r23
 168:	9a 95       	dec	r25
 16a:	e2 f7       	brpl	.-8      	; 0x164 <_ZN8Integral6Device9setStatusENS_3PINEb+0x76>
 16c:	cb 01       	movw	r24, r22
 16e:	84 2b       	or	r24, r20
 170:	44 c0       	rjmp	.+136    	; 0x1fa <_ZN8Integral6Device9setStatusENS_3PINEb+0x10c>
 172:	88 30       	cpi	r24, 0x08	; 8
 174:	70 f4       	brcc	.+28     	; 0x192 <_ZN8Integral6Device9setStatusENS_3PINEb+0xa4>
 176:	4b b3       	in	r20, 0x1b	; 27
 178:	21 e0       	ldi	r18, 0x01	; 1
 17a:	30 e0       	ldi	r19, 0x00	; 0
 17c:	b9 01       	movw	r22, r18
 17e:	02 c0       	rjmp	.+4      	; 0x184 <_ZN8Integral6Device9setStatusENS_3PINEb+0x96>
 180:	66 0f       	add	r22, r22
 182:	77 1f       	adc	r23, r23
 184:	8a 95       	dec	r24
 186:	e2 f7       	brpl	.-8      	; 0x180 <_ZN8Integral6Device9setStatusENS_3PINEb+0x92>
 188:	cb 01       	movw	r24, r22
 18a:	80 95       	com	r24
 18c:	84 23       	and	r24, r20
 18e:	8b bb       	out	0x1b, r24	; 27
 190:	08 95       	ret
 192:	98 ef       	ldi	r25, 0xF8	; 248
 194:	98 0f       	add	r25, r24
 196:	98 30       	cpi	r25, 0x08	; 8
 198:	70 f4       	brcc	.+28     	; 0x1b6 <_ZN8Integral6Device9setStatusENS_3PINEb+0xc8>
 19a:	48 b3       	in	r20, 0x18	; 24
 19c:	21 e0       	ldi	r18, 0x01	; 1
 19e:	30 e0       	ldi	r19, 0x00	; 0
 1a0:	b9 01       	movw	r22, r18
 1a2:	02 c0       	rjmp	.+4      	; 0x1a8 <_ZN8Integral6Device9setStatusENS_3PINEb+0xba>
 1a4:	66 0f       	add	r22, r22
 1a6:	77 1f       	adc	r23, r23
 1a8:	9a 95       	dec	r25
 1aa:	e2 f7       	brpl	.-8      	; 0x1a4 <_ZN8Integral6Device9setStatusENS_3PINEb+0xb6>
 1ac:	cb 01       	movw	r24, r22
 1ae:	80 95       	com	r24
 1b0:	84 23       	and	r24, r20
 1b2:	88 bb       	out	0x18, r24	; 24
 1b4:	08 95       	ret
 1b6:	90 ef       	ldi	r25, 0xF0	; 240
 1b8:	98 0f       	add	r25, r24
 1ba:	98 30       	cpi	r25, 0x08	; 8
 1bc:	70 f4       	brcc	.+28     	; 0x1da <_ZN8Integral6Device9setStatusENS_3PINEb+0xec>
 1be:	45 b3       	in	r20, 0x15	; 21
 1c0:	21 e0       	ldi	r18, 0x01	; 1
 1c2:	30 e0       	ldi	r19, 0x00	; 0
 1c4:	b9 01       	movw	r22, r18
 1c6:	02 c0       	rjmp	.+4      	; 0x1cc <_ZN8Integral6Device9setStatusENS_3PINEb+0xde>
 1c8:	66 0f       	add	r22, r22
 1ca:	77 1f       	adc	r23, r23
 1cc:	9a 95       	dec	r25
 1ce:	e2 f7       	brpl	.-8      	; 0x1c8 <_ZN8Integral6Device9setStatusENS_3PINEb+0xda>
 1d0:	cb 01       	movw	r24, r22
 1d2:	80 95       	com	r24
 1d4:	84 23       	and	r24, r20
 1d6:	85 bb       	out	0x15, r24	; 21
 1d8:	08 95       	ret
 1da:	98 ee       	ldi	r25, 0xE8	; 232
 1dc:	98 0f       	add	r25, r24
 1de:	98 30       	cpi	r25, 0x08	; 8
 1e0:	68 f4       	brcc	.+26     	; 0x1fc <_ZN8Integral6Device9setStatusENS_3PINEb+0x10e>
 1e2:	42 b3       	in	r20, 0x12	; 18
 1e4:	21 e0       	ldi	r18, 0x01	; 1
 1e6:	30 e0       	ldi	r19, 0x00	; 0
 1e8:	b9 01       	movw	r22, r18
 1ea:	02 c0       	rjmp	.+4      	; 0x1f0 <_ZN8Integral6Device9setStatusENS_3PINEb+0x102>
 1ec:	66 0f       	add	r22, r22
 1ee:	77 1f       	adc	r23, r23
 1f0:	9a 95       	dec	r25
 1f2:	e2 f7       	brpl	.-8      	; 0x1ec <_ZN8Integral6Device9setStatusENS_3PINEb+0xfe>
 1f4:	cb 01       	movw	r24, r22
 1f6:	80 95       	com	r24
 1f8:	84 23       	and	r24, r20
 1fa:	82 bb       	out	0x12, r24	; 18
 1fc:	08 95       	ret

000001fe <_ZN8Integral6Device12setDirectionENS_3PINEb>:
 1fe:	66 23       	and	r22, r22
 200:	09 f4       	brne	.+2      	; 0x204 <_ZN8Integral6Device12setDirectionENS_3PINEb+0x6>
 202:	3f c0       	rjmp	.+126    	; 0x282 <_ZN8Integral6Device12setDirectionENS_3PINEb+0x84>
 204:	88 30       	cpi	r24, 0x08	; 8
 206:	60 f4       	brcc	.+24     	; 0x220 <_ZN8Integral6Device12setDirectionENS_3PINEb+0x22>
 208:	4a b3       	in	r20, 0x1a	; 26
 20a:	21 e0       	ldi	r18, 0x01	; 1
 20c:	30 e0       	ldi	r19, 0x00	; 0
 20e:	b9 01       	movw	r22, r18
 210:	02 c0       	rjmp	.+4      	; 0x216 <_ZN8Integral6Device12setDirectionENS_3PINEb+0x18>
 212:	66 0f       	add	r22, r22
 214:	77 1f       	adc	r23, r23
 216:	8a 95       	dec	r24
 218:	e2 f7       	brpl	.-8      	; 0x212 <_ZN8Integral6Device12setDirectionENS_3PINEb+0x14>
 21a:	cb 01       	movw	r24, r22
 21c:	84 2b       	or	r24, r20
 21e:	3f c0       	rjmp	.+126    	; 0x29e <_ZN8Integral6Device12setDirectionENS_3PINEb+0xa0>
 220:	98 ef       	ldi	r25, 0xF8	; 248
 222:	98 0f       	add	r25, r24
 224:	98 30       	cpi	r25, 0x08	; 8
 226:	60 f4       	brcc	.+24     	; 0x240 <_ZN8Integral6Device12setDirectionENS_3PINEb+0x42>
 228:	47 b3       	in	r20, 0x17	; 23
 22a:	21 e0       	ldi	r18, 0x01	; 1
 22c:	30 e0       	ldi	r19, 0x00	; 0
 22e:	b9 01       	movw	r22, r18
 230:	02 c0       	rjmp	.+4      	; 0x236 <_ZN8Integral6Device12setDirectionENS_3PINEb+0x38>
 232:	66 0f       	add	r22, r22
 234:	77 1f       	adc	r23, r23
 236:	9a 95       	dec	r25
 238:	e2 f7       	brpl	.-8      	; 0x232 <_ZN8Integral6Device12setDirectionENS_3PINEb+0x34>
 23a:	cb 01       	movw	r24, r22
 23c:	84 2b       	or	r24, r20
 23e:	41 c0       	rjmp	.+130    	; 0x2c2 <_ZN8Integral6Device12setDirectionENS_3PINEb+0xc4>
 240:	90 ef       	ldi	r25, 0xF0	; 240
 242:	98 0f       	add	r25, r24
 244:	98 30       	cpi	r25, 0x08	; 8
 246:	60 f4       	brcc	.+24     	; 0x260 <_ZN8Integral6Device12setDirectionENS_3PINEb+0x62>
 248:	44 b3       	in	r20, 0x14	; 20
 24a:	21 e0       	ldi	r18, 0x01	; 1
 24c:	30 e0       	ldi	r19, 0x00	; 0
 24e:	b9 01       	movw	r22, r18
 250:	02 c0       	rjmp	.+4      	; 0x256 <_ZN8Integral6Device12setDirectionENS_3PINEb+0x58>
 252:	66 0f       	add	r22, r22
 254:	77 1f       	adc	r23, r23
 256:	9a 95       	dec	r25
 258:	e2 f7       	brpl	.-8      	; 0x252 <_ZN8Integral6Device12setDirectionENS_3PINEb+0x54>
 25a:	cb 01       	movw	r24, r22
 25c:	84 2b       	or	r24, r20
 25e:	43 c0       	rjmp	.+134    	; 0x2e6 <_ZN8Integral6Device12setDirectionENS_3PINEb+0xe8>
 260:	98 ee       	ldi	r25, 0xE8	; 232
 262:	98 0f       	add	r25, r24
 264:	98 30       	cpi	r25, 0x08	; 8
 266:	08 f0       	brcs	.+2      	; 0x26a <_ZN8Integral6Device12setDirectionENS_3PINEb+0x6c>
 268:	51 c0       	rjmp	.+162    	; 0x30c <_ZN8Integral6Device12setDirectionENS_3PINEb+0x10e>
 26a:	41 b3       	in	r20, 0x11	; 17
 26c:	21 e0       	ldi	r18, 0x01	; 1
 26e:	30 e0       	ldi	r19, 0x00	; 0
 270:	b9 01       	movw	r22, r18
 272:	02 c0       	rjmp	.+4      	; 0x278 <_ZN8Integral6Device12setDirectionENS_3PINEb+0x7a>
 274:	66 0f       	add	r22, r22
 276:	77 1f       	adc	r23, r23
 278:	9a 95       	dec	r25
 27a:	e2 f7       	brpl	.-8      	; 0x274 <_ZN8Integral6Device12setDirectionENS_3PINEb+0x76>
 27c:	cb 01       	movw	r24, r22
 27e:	84 2b       	or	r24, r20
 280:	44 c0       	rjmp	.+136    	; 0x30a <_ZN8Integral6Device12setDirectionENS_3PINEb+0x10c>
 282:	88 30       	cpi	r24, 0x08	; 8
 284:	70 f4       	brcc	.+28     	; 0x2a2 <_ZN8Integral6Device12setDirectionENS_3PINEb+0xa4>
 286:	4a b3       	in	r20, 0x1a	; 26
 288:	21 e0       	ldi	r18, 0x01	; 1
 28a:	30 e0       	ldi	r19, 0x00	; 0
 28c:	b9 01       	movw	r22, r18
 28e:	02 c0       	rjmp	.+4      	; 0x294 <_ZN8Integral6Device12setDirectionENS_3PINEb+0x96>
 290:	66 0f       	add	r22, r22
 292:	77 1f       	adc	r23, r23
 294:	8a 95       	dec	r24
 296:	e2 f7       	brpl	.-8      	; 0x290 <_ZN8Integral6Device12setDirectionENS_3PINEb+0x92>
 298:	cb 01       	movw	r24, r22
 29a:	80 95       	com	r24
 29c:	84 23       	and	r24, r20
 29e:	8a bb       	out	0x1a, r24	; 26
 2a0:	08 95       	ret
 2a2:	98 ef       	ldi	r25, 0xF8	; 248
 2a4:	98 0f       	add	r25, r24
 2a6:	98 30       	cpi	r25, 0x08	; 8
 2a8:	70 f4       	brcc	.+28     	; 0x2c6 <_ZN8Integral6Device12setDirectionENS_3PINEb+0xc8>
 2aa:	47 b3       	in	r20, 0x17	; 23
 2ac:	21 e0       	ldi	r18, 0x01	; 1
 2ae:	30 e0       	ldi	r19, 0x00	; 0
 2b0:	b9 01       	movw	r22, r18
 2b2:	02 c0       	rjmp	.+4      	; 0x2b8 <_ZN8Integral6Device12setDirectionENS_3PINEb+0xba>
 2b4:	66 0f       	add	r22, r22
 2b6:	77 1f       	adc	r23, r23
 2b8:	9a 95       	dec	r25
 2ba:	e2 f7       	brpl	.-8      	; 0x2b4 <_ZN8Integral6Device12setDirectionENS_3PINEb+0xb6>
 2bc:	cb 01       	movw	r24, r22
 2be:	80 95       	com	r24
 2c0:	84 23       	and	r24, r20
 2c2:	87 bb       	out	0x17, r24	; 23
 2c4:	08 95       	ret
 2c6:	90 ef       	ldi	r25, 0xF0	; 240
 2c8:	98 0f       	add	r25, r24
 2ca:	98 30       	cpi	r25, 0x08	; 8
 2cc:	70 f4       	brcc	.+28     	; 0x2ea <_ZN8Integral6Device12setDirectionENS_3PINEb+0xec>
 2ce:	44 b3       	in	r20, 0x14	; 20
 2d0:	21 e0       	ldi	r18, 0x01	; 1
 2d2:	30 e0       	ldi	r19, 0x00	; 0
 2d4:	b9 01       	movw	r22, r18
 2d6:	02 c0       	rjmp	.+4      	; 0x2dc <_ZN8Integral6Device12setDirectionENS_3PINEb+0xde>
 2d8:	66 0f       	add	r22, r22
 2da:	77 1f       	adc	r23, r23
 2dc:	9a 95       	dec	r25
 2de:	e2 f7       	brpl	.-8      	; 0x2d8 <_ZN8Integral6Device12setDirectionENS_3PINEb+0xda>
 2e0:	cb 01       	movw	r24, r22
 2e2:	80 95       	com	r24
 2e4:	84 23       	and	r24, r20
 2e6:	84 bb       	out	0x14, r24	; 20
 2e8:	08 95       	ret
 2ea:	98 ee       	ldi	r25, 0xE8	; 232
 2ec:	98 0f       	add	r25, r24
 2ee:	98 30       	cpi	r25, 0x08	; 8
 2f0:	68 f4       	brcc	.+26     	; 0x30c <_ZN8Integral6Device12setDirectionENS_3PINEb+0x10e>
 2f2:	41 b3       	in	r20, 0x11	; 17
 2f4:	21 e0       	ldi	r18, 0x01	; 1
 2f6:	30 e0       	ldi	r19, 0x00	; 0
 2f8:	b9 01       	movw	r22, r18
 2fa:	02 c0       	rjmp	.+4      	; 0x300 <_ZN8Integral6Device12setDirectionENS_3PINEb+0x102>
 2fc:	66 0f       	add	r22, r22
 2fe:	77 1f       	adc	r23, r23
 300:	9a 95       	dec	r25
 302:	e2 f7       	brpl	.-8      	; 0x2fc <_ZN8Integral6Device12setDirectionENS_3PINEb+0xfe>
 304:	cb 01       	movw	r24, r22
 306:	80 95       	com	r24
 308:	84 23       	and	r24, r20
 30a:	81 bb       	out	0x11, r24	; 17
 30c:	08 95       	ret

0000030e <main>:
 30e:	cf 93       	push	r28
 310:	df 93       	push	r29
 312:	00 d0       	rcall	.+0      	; 0x314 <main+0x6>
 314:	00 d0       	rcall	.+0      	; 0x316 <main+0x8>
 316:	00 d0       	rcall	.+0      	; 0x318 <main+0xa>
 318:	cd b7       	in	r28, 0x3d	; 61
 31a:	de b7       	in	r29, 0x3e	; 62
 31c:	89 e1       	ldi	r24, 0x19	; 25
 31e:	89 83       	std	Y+1, r24	; 0x01
 320:	8b e1       	ldi	r24, 0x1B	; 27
 322:	8a 83       	std	Y+2, r24	; 0x02
 324:	8e e1       	ldi	r24, 0x1E	; 30
 326:	8b 83       	std	Y+3, r24	; 0x03
 328:	8c e1       	ldi	r24, 0x1C	; 28
 32a:	8c 83       	std	Y+4, r24	; 0x04
 32c:	ae 01       	movw	r20, r28
 32e:	4f 5f       	subi	r20, 0xFF	; 255
 330:	5f 4f       	sbci	r21, 0xFF	; 255
 332:	64 e0       	ldi	r22, 0x04	; 4
 334:	70 e0       	ldi	r23, 0x00	; 0
 336:	ce 01       	movw	r24, r28
 338:	05 96       	adiw	r24, 0x05	; 5
 33a:	0e 94 41 00 	call	0x82	; 0x82 <_ZN8Integral6PinsetC1EiPNS_3PINE>
 33e:	6a e0       	ldi	r22, 0x0A	; 10
 340:	70 e0       	ldi	r23, 0x00	; 0
 342:	ce 01       	movw	r24, r28
 344:	05 96       	adiw	r24, 0x05	; 5
 346:	0e 94 52 00 	call	0xa4	; 0xa4 <_ZN8Integral6Pinset7putDataEj>
 34a:	8f e4       	ldi	r24, 0x4F	; 79
 34c:	93 ec       	ldi	r25, 0xC3	; 195
 34e:	01 97       	sbiw	r24, 0x01	; 1
 350:	f1 f7       	brne	.-4      	; 0x34e <main+0x40>
 352:	00 c0       	rjmp	.+0      	; 0x354 <main+0x46>
 354:	00 00       	nop
 356:	66 e0       	ldi	r22, 0x06	; 6
 358:	70 e0       	ldi	r23, 0x00	; 0
 35a:	ce 01       	movw	r24, r28
 35c:	05 96       	adiw	r24, 0x05	; 5
 35e:	0e 94 52 00 	call	0xa4	; 0xa4 <_ZN8Integral6Pinset7putDataEj>
 362:	8f e4       	ldi	r24, 0x4F	; 79
 364:	93 ec       	ldi	r25, 0xC3	; 195
 366:	01 97       	sbiw	r24, 0x01	; 1
 368:	f1 f7       	brne	.-4      	; 0x366 <main+0x58>
 36a:	00 c0       	rjmp	.+0      	; 0x36c <main+0x5e>
 36c:	00 00       	nop
 36e:	65 e0       	ldi	r22, 0x05	; 5
 370:	70 e0       	ldi	r23, 0x00	; 0
 372:	ce 01       	movw	r24, r28
 374:	05 96       	adiw	r24, 0x05	; 5
 376:	0e 94 52 00 	call	0xa4	; 0xa4 <_ZN8Integral6Pinset7putDataEj>
 37a:	8f e4       	ldi	r24, 0x4F	; 79
 37c:	93 ec       	ldi	r25, 0xC3	; 195
 37e:	01 97       	sbiw	r24, 0x01	; 1
 380:	f1 f7       	brne	.-4      	; 0x37e <main+0x70>
 382:	00 c0       	rjmp	.+0      	; 0x384 <main+0x76>
 384:	00 00       	nop
 386:	69 e0       	ldi	r22, 0x09	; 9
 388:	70 e0       	ldi	r23, 0x00	; 0
 38a:	ce 01       	movw	r24, r28
 38c:	05 96       	adiw	r24, 0x05	; 5
 38e:	0e 94 52 00 	call	0xa4	; 0xa4 <_ZN8Integral6Pinset7putDataEj>
 392:	8f e4       	ldi	r24, 0x4F	; 79
 394:	93 ec       	ldi	r25, 0xC3	; 195
 396:	01 97       	sbiw	r24, 0x01	; 1
 398:	f1 f7       	brne	.-4      	; 0x396 <main+0x88>
 39a:	00 c0       	rjmp	.+0      	; 0x39c <main+0x8e>
 39c:	00 00       	nop
 39e:	cf cf       	rjmp	.-98     	; 0x33e <main+0x30>

000003a0 <_exit>:
 3a0:	f8 94       	cli

000003a2 <__stop_program>:
 3a2:	ff cf       	rjmp	.-2      	; 0x3a2 <__stop_program>
