
MicrocontrollerSystem.elf:     file format elf32-avr

Sections:
Idx Name          Size      VMA       LMA       File off  Algn
  0 .text         000007b6  00000000  00000000  00000074  2**1
                  CONTENTS, ALLOC, LOAD, READONLY, CODE
  1 .data         00000034  00800060  000007b6  0000082a  2**0
                  CONTENTS, ALLOC, LOAD, DATA
  2 .comment      00000030  00000000  00000000  0000085e  2**0
                  CONTENTS, READONLY
  3 .note.gnu.avr.deviceinfo 0000003c  00000000  00000000  00000890  2**2
                  CONTENTS, READONLY

Disassembly of section .text:

00000000 <__vectors>:
   0:	0c 94 2a 00 	jmp	0x54	; 0x54 <__ctors_end>
   4:	0c 94 3f 00 	jmp	0x7e	; 0x7e <__bad_interrupt>
   8:	0c 94 3f 00 	jmp	0x7e	; 0x7e <__bad_interrupt>
   c:	0c 94 3f 00 	jmp	0x7e	; 0x7e <__bad_interrupt>
  10:	0c 94 3f 00 	jmp	0x7e	; 0x7e <__bad_interrupt>
  14:	0c 94 3f 00 	jmp	0x7e	; 0x7e <__bad_interrupt>
  18:	0c 94 3f 00 	jmp	0x7e	; 0x7e <__bad_interrupt>
  1c:	0c 94 3f 00 	jmp	0x7e	; 0x7e <__bad_interrupt>
  20:	0c 94 3f 00 	jmp	0x7e	; 0x7e <__bad_interrupt>
  24:	0c 94 3f 00 	jmp	0x7e	; 0x7e <__bad_interrupt>
  28:	0c 94 3f 00 	jmp	0x7e	; 0x7e <__bad_interrupt>
  2c:	0c 94 3f 00 	jmp	0x7e	; 0x7e <__bad_interrupt>
  30:	0c 94 3f 00 	jmp	0x7e	; 0x7e <__bad_interrupt>
  34:	0c 94 3f 00 	jmp	0x7e	; 0x7e <__bad_interrupt>
  38:	0c 94 3f 00 	jmp	0x7e	; 0x7e <__bad_interrupt>
  3c:	0c 94 3f 00 	jmp	0x7e	; 0x7e <__bad_interrupt>
  40:	0c 94 3f 00 	jmp	0x7e	; 0x7e <__bad_interrupt>
  44:	0c 94 3f 00 	jmp	0x7e	; 0x7e <__bad_interrupt>
  48:	0c 94 3f 00 	jmp	0x7e	; 0x7e <__bad_interrupt>
  4c:	0c 94 3f 00 	jmp	0x7e	; 0x7e <__bad_interrupt>
  50:	0c 94 3f 00 	jmp	0x7e	; 0x7e <__bad_interrupt>

00000054 <__ctors_end>:
  54:	11 24       	eor	r1, r1
  56:	1f be       	out	0x3f, r1	; 63
  58:	cf e5       	ldi	r28, 0x5F	; 95
  5a:	d8 e0       	ldi	r29, 0x08	; 8
  5c:	de bf       	out	0x3e, r29	; 62
  5e:	cd bf       	out	0x3d, r28	; 61

00000060 <__do_copy_data>:
  60:	10 e0       	ldi	r17, 0x00	; 0
  62:	a0 e6       	ldi	r26, 0x60	; 96
  64:	b0 e0       	ldi	r27, 0x00	; 0
  66:	e6 eb       	ldi	r30, 0xB6	; 182
  68:	f7 e0       	ldi	r31, 0x07	; 7
  6a:	02 c0       	rjmp	.+4      	; 0x70 <__do_copy_data+0x10>
  6c:	05 90       	lpm	r0, Z+
  6e:	0d 92       	st	X+, r0
  70:	a4 39       	cpi	r26, 0x94	; 148
  72:	b1 07       	cpc	r27, r17
  74:	d9 f7       	brne	.-10     	; 0x6c <__do_copy_data+0xc>
  76:	0e 94 29 03 	call	0x652	; 0x652 <main>
  7a:	0c 94 d9 03 	jmp	0x7b2	; 0x7b2 <_exit>

0000007e <__bad_interrupt>:
  7e:	0c 94 00 00 	jmp	0	; 0x0 <__vectors>

00000082 <_ZN6Device9setStatusE4PORT3PINb>:
  82:	44 23       	and	r20, r20
  84:	61 f1       	breq	.+88     	; 0xde <_ZN6Device9setStatusE4PORT3PINb+0x5c>
  86:	81 11       	cpse	r24, r1
  88:	09 c0       	rjmp	.+18     	; 0x9c <_ZN6Device9setStatusE4PORT3PINb+0x1a>
  8a:	2b b3       	in	r18, 0x1b	; 27
  8c:	81 e0       	ldi	r24, 0x01	; 1
  8e:	90 e0       	ldi	r25, 0x00	; 0
  90:	01 c0       	rjmp	.+2      	; 0x94 <_ZN6Device9setStatusE4PORT3PINb+0x12>
  92:	88 0f       	add	r24, r24
  94:	6a 95       	dec	r22
  96:	ea f7       	brpl	.-6      	; 0x92 <_ZN6Device9setStatusE4PORT3PINb+0x10>
  98:	82 2b       	or	r24, r18
  9a:	2c c0       	rjmp	.+88     	; 0xf4 <_ZN6Device9setStatusE4PORT3PINb+0x72>
  9c:	81 30       	cpi	r24, 0x01	; 1
  9e:	49 f4       	brne	.+18     	; 0xb2 <_ZN6Device9setStatusE4PORT3PINb+0x30>
  a0:	28 b3       	in	r18, 0x18	; 24
  a2:	81 e0       	ldi	r24, 0x01	; 1
  a4:	90 e0       	ldi	r25, 0x00	; 0
  a6:	01 c0       	rjmp	.+2      	; 0xaa <_ZN6Device9setStatusE4PORT3PINb+0x28>
  a8:	88 0f       	add	r24, r24
  aa:	6a 95       	dec	r22
  ac:	ea f7       	brpl	.-6      	; 0xa8 <_ZN6Device9setStatusE4PORT3PINb+0x26>
  ae:	82 2b       	or	r24, r18
  b0:	2e c0       	rjmp	.+92     	; 0x10e <_ZN6Device9setStatusE4PORT3PINb+0x8c>
  b2:	82 30       	cpi	r24, 0x02	; 2
  b4:	49 f4       	brne	.+18     	; 0xc8 <_ZN6Device9setStatusE4PORT3PINb+0x46>
  b6:	25 b3       	in	r18, 0x15	; 21
  b8:	81 e0       	ldi	r24, 0x01	; 1
  ba:	90 e0       	ldi	r25, 0x00	; 0
  bc:	01 c0       	rjmp	.+2      	; 0xc0 <_ZN6Device9setStatusE4PORT3PINb+0x3e>
  be:	88 0f       	add	r24, r24
  c0:	6a 95       	dec	r22
  c2:	ea f7       	brpl	.-6      	; 0xbe <_ZN6Device9setStatusE4PORT3PINb+0x3c>
  c4:	82 2b       	or	r24, r18
  c6:	30 c0       	rjmp	.+96     	; 0x128 <_ZN6Device9setStatusE4PORT3PINb+0xa6>
  c8:	83 30       	cpi	r24, 0x03	; 3
  ca:	e1 f5       	brne	.+120    	; 0x144 <_ZN6Device9setStatusE4PORT3PINb+0xc2>
  cc:	22 b3       	in	r18, 0x12	; 18
  ce:	81 e0       	ldi	r24, 0x01	; 1
  d0:	90 e0       	ldi	r25, 0x00	; 0
  d2:	01 c0       	rjmp	.+2      	; 0xd6 <_ZN6Device9setStatusE4PORT3PINb+0x54>
  d4:	88 0f       	add	r24, r24
  d6:	6a 95       	dec	r22
  d8:	ea f7       	brpl	.-6      	; 0xd4 <_ZN6Device9setStatusE4PORT3PINb+0x52>
  da:	82 2b       	or	r24, r18
  dc:	32 c0       	rjmp	.+100    	; 0x142 <_ZN6Device9setStatusE4PORT3PINb+0xc0>
  de:	81 11       	cpse	r24, r1
  e0:	0b c0       	rjmp	.+22     	; 0xf8 <_ZN6Device9setStatusE4PORT3PINb+0x76>
  e2:	2b b3       	in	r18, 0x1b	; 27
  e4:	81 e0       	ldi	r24, 0x01	; 1
  e6:	90 e0       	ldi	r25, 0x00	; 0
  e8:	01 c0       	rjmp	.+2      	; 0xec <_ZN6Device9setStatusE4PORT3PINb+0x6a>
  ea:	88 0f       	add	r24, r24
  ec:	6a 95       	dec	r22
  ee:	ea f7       	brpl	.-6      	; 0xea <_ZN6Device9setStatusE4PORT3PINb+0x68>
  f0:	80 95       	com	r24
  f2:	82 23       	and	r24, r18
  f4:	8b bb       	out	0x1b, r24	; 27
  f6:	08 95       	ret
  f8:	81 30       	cpi	r24, 0x01	; 1
  fa:	59 f4       	brne	.+22     	; 0x112 <_ZN6Device9setStatusE4PORT3PINb+0x90>
  fc:	28 b3       	in	r18, 0x18	; 24
  fe:	81 e0       	ldi	r24, 0x01	; 1
 100:	90 e0       	ldi	r25, 0x00	; 0
 102:	01 c0       	rjmp	.+2      	; 0x106 <_ZN6Device9setStatusE4PORT3PINb+0x84>
 104:	88 0f       	add	r24, r24
 106:	6a 95       	dec	r22
 108:	ea f7       	brpl	.-6      	; 0x104 <_ZN6Device9setStatusE4PORT3PINb+0x82>
 10a:	80 95       	com	r24
 10c:	82 23       	and	r24, r18
 10e:	88 bb       	out	0x18, r24	; 24
 110:	08 95       	ret
 112:	82 30       	cpi	r24, 0x02	; 2
 114:	59 f4       	brne	.+22     	; 0x12c <_ZN6Device9setStatusE4PORT3PINb+0xaa>
 116:	25 b3       	in	r18, 0x15	; 21
 118:	81 e0       	ldi	r24, 0x01	; 1
 11a:	90 e0       	ldi	r25, 0x00	; 0
 11c:	01 c0       	rjmp	.+2      	; 0x120 <_ZN6Device9setStatusE4PORT3PINb+0x9e>
 11e:	88 0f       	add	r24, r24
 120:	6a 95       	dec	r22
 122:	ea f7       	brpl	.-6      	; 0x11e <_ZN6Device9setStatusE4PORT3PINb+0x9c>
 124:	80 95       	com	r24
 126:	82 23       	and	r24, r18
 128:	85 bb       	out	0x15, r24	; 21
 12a:	08 95       	ret
 12c:	83 30       	cpi	r24, 0x03	; 3
 12e:	51 f4       	brne	.+20     	; 0x144 <_ZN6Device9setStatusE4PORT3PINb+0xc2>
 130:	22 b3       	in	r18, 0x12	; 18
 132:	81 e0       	ldi	r24, 0x01	; 1
 134:	90 e0       	ldi	r25, 0x00	; 0
 136:	01 c0       	rjmp	.+2      	; 0x13a <_ZN6Device9setStatusE4PORT3PINb+0xb8>
 138:	88 0f       	add	r24, r24
 13a:	6a 95       	dec	r22
 13c:	ea f7       	brpl	.-6      	; 0x138 <_ZN6Device9setStatusE4PORT3PINb+0xb6>
 13e:	80 95       	com	r24
 140:	82 23       	and	r24, r18
 142:	82 bb       	out	0x12, r24	; 18
 144:	08 95       	ret

00000146 <_ZN6Device12setDirectionE4PORT3PINb>:
 146:	44 23       	and	r20, r20
 148:	61 f1       	breq	.+88     	; 0x1a2 <_ZN6Device12setDirectionE4PORT3PINb+0x5c>
 14a:	81 11       	cpse	r24, r1
 14c:	09 c0       	rjmp	.+18     	; 0x160 <_ZN6Device12setDirectionE4PORT3PINb+0x1a>
 14e:	2a b3       	in	r18, 0x1a	; 26
 150:	81 e0       	ldi	r24, 0x01	; 1
 152:	90 e0       	ldi	r25, 0x00	; 0
 154:	01 c0       	rjmp	.+2      	; 0x158 <_ZN6Device12setDirectionE4PORT3PINb+0x12>
 156:	88 0f       	add	r24, r24
 158:	6a 95       	dec	r22
 15a:	ea f7       	brpl	.-6      	; 0x156 <_ZN6Device12setDirectionE4PORT3PINb+0x10>
 15c:	82 2b       	or	r24, r18
 15e:	2c c0       	rjmp	.+88     	; 0x1b8 <_ZN6Device12setDirectionE4PORT3PINb+0x72>
 160:	81 30       	cpi	r24, 0x01	; 1
 162:	49 f4       	brne	.+18     	; 0x176 <_ZN6Device12setDirectionE4PORT3PINb+0x30>
 164:	27 b3       	in	r18, 0x17	; 23
 166:	81 e0       	ldi	r24, 0x01	; 1
 168:	90 e0       	ldi	r25, 0x00	; 0
 16a:	01 c0       	rjmp	.+2      	; 0x16e <_ZN6Device12setDirectionE4PORT3PINb+0x28>
 16c:	88 0f       	add	r24, r24
 16e:	6a 95       	dec	r22
 170:	ea f7       	brpl	.-6      	; 0x16c <_ZN6Device12setDirectionE4PORT3PINb+0x26>
 172:	82 2b       	or	r24, r18
 174:	2e c0       	rjmp	.+92     	; 0x1d2 <_ZN6Device12setDirectionE4PORT3PINb+0x8c>
 176:	82 30       	cpi	r24, 0x02	; 2
 178:	49 f4       	brne	.+18     	; 0x18c <_ZN6Device12setDirectionE4PORT3PINb+0x46>
 17a:	24 b3       	in	r18, 0x14	; 20
 17c:	81 e0       	ldi	r24, 0x01	; 1
 17e:	90 e0       	ldi	r25, 0x00	; 0
 180:	01 c0       	rjmp	.+2      	; 0x184 <_ZN6Device12setDirectionE4PORT3PINb+0x3e>
 182:	88 0f       	add	r24, r24
 184:	6a 95       	dec	r22
 186:	ea f7       	brpl	.-6      	; 0x182 <_ZN6Device12setDirectionE4PORT3PINb+0x3c>
 188:	82 2b       	or	r24, r18
 18a:	30 c0       	rjmp	.+96     	; 0x1ec <_ZN6Device12setDirectionE4PORT3PINb+0xa6>
 18c:	83 30       	cpi	r24, 0x03	; 3
 18e:	e1 f5       	brne	.+120    	; 0x208 <_ZN6Device12setDirectionE4PORT3PINb+0xc2>
 190:	21 b3       	in	r18, 0x11	; 17
 192:	81 e0       	ldi	r24, 0x01	; 1
 194:	90 e0       	ldi	r25, 0x00	; 0
 196:	01 c0       	rjmp	.+2      	; 0x19a <_ZN6Device12setDirectionE4PORT3PINb+0x54>
 198:	88 0f       	add	r24, r24
 19a:	6a 95       	dec	r22
 19c:	ea f7       	brpl	.-6      	; 0x198 <_ZN6Device12setDirectionE4PORT3PINb+0x52>
 19e:	82 2b       	or	r24, r18
 1a0:	32 c0       	rjmp	.+100    	; 0x206 <_ZN6Device12setDirectionE4PORT3PINb+0xc0>
 1a2:	81 11       	cpse	r24, r1
 1a4:	0b c0       	rjmp	.+22     	; 0x1bc <_ZN6Device12setDirectionE4PORT3PINb+0x76>
 1a6:	2a b3       	in	r18, 0x1a	; 26
 1a8:	81 e0       	ldi	r24, 0x01	; 1
 1aa:	90 e0       	ldi	r25, 0x00	; 0
 1ac:	01 c0       	rjmp	.+2      	; 0x1b0 <_ZN6Device12setDirectionE4PORT3PINb+0x6a>
 1ae:	88 0f       	add	r24, r24
 1b0:	6a 95       	dec	r22
 1b2:	ea f7       	brpl	.-6      	; 0x1ae <_ZN6Device12setDirectionE4PORT3PINb+0x68>
 1b4:	80 95       	com	r24
 1b6:	82 23       	and	r24, r18
 1b8:	8a bb       	out	0x1a, r24	; 26
 1ba:	08 95       	ret
 1bc:	81 30       	cpi	r24, 0x01	; 1
 1be:	59 f4       	brne	.+22     	; 0x1d6 <_ZN6Device12setDirectionE4PORT3PINb+0x90>
 1c0:	27 b3       	in	r18, 0x17	; 23
 1c2:	81 e0       	ldi	r24, 0x01	; 1
 1c4:	90 e0       	ldi	r25, 0x00	; 0
 1c6:	01 c0       	rjmp	.+2      	; 0x1ca <_ZN6Device12setDirectionE4PORT3PINb+0x84>
 1c8:	88 0f       	add	r24, r24
 1ca:	6a 95       	dec	r22
 1cc:	ea f7       	brpl	.-6      	; 0x1c8 <_ZN6Device12setDirectionE4PORT3PINb+0x82>
 1ce:	80 95       	com	r24
 1d0:	82 23       	and	r24, r18
 1d2:	87 bb       	out	0x17, r24	; 23
 1d4:	08 95       	ret
 1d6:	82 30       	cpi	r24, 0x02	; 2
 1d8:	59 f4       	brne	.+22     	; 0x1f0 <_ZN6Device12setDirectionE4PORT3PINb+0xaa>
 1da:	24 b3       	in	r18, 0x14	; 20
 1dc:	81 e0       	ldi	r24, 0x01	; 1
 1de:	90 e0       	ldi	r25, 0x00	; 0
 1e0:	01 c0       	rjmp	.+2      	; 0x1e4 <_ZN6Device12setDirectionE4PORT3PINb+0x9e>
 1e2:	88 0f       	add	r24, r24
 1e4:	6a 95       	dec	r22
 1e6:	ea f7       	brpl	.-6      	; 0x1e2 <_ZN6Device12setDirectionE4PORT3PINb+0x9c>
 1e8:	80 95       	com	r24
 1ea:	82 23       	and	r24, r18
 1ec:	84 bb       	out	0x14, r24	; 20
 1ee:	08 95       	ret
 1f0:	83 30       	cpi	r24, 0x03	; 3
 1f2:	51 f4       	brne	.+20     	; 0x208 <_ZN6Device12setDirectionE4PORT3PINb+0xc2>
 1f4:	21 b3       	in	r18, 0x11	; 17
 1f6:	81 e0       	ldi	r24, 0x01	; 1
 1f8:	90 e0       	ldi	r25, 0x00	; 0
 1fa:	01 c0       	rjmp	.+2      	; 0x1fe <_ZN6Device12setDirectionE4PORT3PINb+0xb8>
 1fc:	88 0f       	add	r24, r24
 1fe:	6a 95       	dec	r22
 200:	ea f7       	brpl	.-6      	; 0x1fc <_ZN6Device12setDirectionE4PORT3PINb+0xb6>
 202:	80 95       	com	r24
 204:	82 23       	and	r24, r18
 206:	81 bb       	out	0x11, r24	; 17
 208:	08 95       	ret

0000020a <_ZN6Device9setStatusE4PORTi>:
 20a:	81 11       	cpse	r24, r1
 20c:	02 c0       	rjmp	.+4      	; 0x212 <_ZN6Device9setStatusE4PORTi+0x8>
 20e:	6b bb       	out	0x1b, r22	; 27
 210:	08 95       	ret
 212:	81 30       	cpi	r24, 0x01	; 1
 214:	11 f4       	brne	.+4      	; 0x21a <_ZN6Device9setStatusE4PORTi+0x10>
 216:	68 bb       	out	0x18, r22	; 24
 218:	08 95       	ret
 21a:	82 30       	cpi	r24, 0x02	; 2
 21c:	11 f4       	brne	.+4      	; 0x222 <_ZN6Device9setStatusE4PORTi+0x18>
 21e:	65 bb       	out	0x15, r22	; 21
 220:	08 95       	ret
 222:	83 30       	cpi	r24, 0x03	; 3
 224:	09 f4       	brne	.+2      	; 0x228 <_ZN6Device9setStatusE4PORTi+0x1e>
 226:	62 bb       	out	0x12, r22	; 18
 228:	08 95       	ret

0000022a <_ZN6Device12setDirectionE4PORTi>:
 22a:	81 11       	cpse	r24, r1
 22c:	02 c0       	rjmp	.+4      	; 0x232 <_ZN6Device12setDirectionE4PORTi+0x8>
 22e:	6a bb       	out	0x1a, r22	; 26
 230:	08 95       	ret
 232:	81 30       	cpi	r24, 0x01	; 1
 234:	11 f4       	brne	.+4      	; 0x23a <_ZN6Device12setDirectionE4PORTi+0x10>
 236:	67 bb       	out	0x17, r22	; 23
 238:	08 95       	ret
 23a:	82 30       	cpi	r24, 0x02	; 2
 23c:	11 f4       	brne	.+4      	; 0x242 <_ZN6Device12setDirectionE4PORTi+0x18>
 23e:	64 bb       	out	0x14, r22	; 20
 240:	08 95       	ret
 242:	83 30       	cpi	r24, 0x03	; 3
 244:	09 f4       	brne	.+2      	; 0x248 <_ZN6Device12setDirectionE4PORTi+0x1e>
 246:	61 bb       	out	0x11, r22	; 17
 248:	08 95       	ret

0000024a <_ZN6Device9getStatusE4PORT3PIN>:
 24a:	81 11       	cpse	r24, r1
 24c:	02 c0       	rjmp	.+4      	; 0x252 <_ZN6Device9getStatusE4PORT3PIN+0x8>
 24e:	89 b3       	in	r24, 0x19	; 25
 250:	0b c0       	rjmp	.+22     	; 0x268 <_ZN6Device9getStatusE4PORT3PIN+0x1e>
 252:	81 30       	cpi	r24, 0x01	; 1
 254:	11 f4       	brne	.+4      	; 0x25a <_ZN6Device9getStatusE4PORT3PIN+0x10>
 256:	86 b3       	in	r24, 0x16	; 22
 258:	07 c0       	rjmp	.+14     	; 0x268 <_ZN6Device9getStatusE4PORT3PIN+0x1e>
 25a:	82 30       	cpi	r24, 0x02	; 2
 25c:	11 f4       	brne	.+4      	; 0x262 <_ZN6Device9getStatusE4PORT3PIN+0x18>
 25e:	83 b3       	in	r24, 0x13	; 19
 260:	03 c0       	rjmp	.+6      	; 0x268 <_ZN6Device9getStatusE4PORT3PIN+0x1e>
 262:	83 30       	cpi	r24, 0x03	; 3
 264:	49 f4       	brne	.+18     	; 0x278 <_ZN6Device9getStatusE4PORT3PIN+0x2e>
 266:	80 b3       	in	r24, 0x10	; 16
 268:	90 e0       	ldi	r25, 0x00	; 0
 26a:	02 c0       	rjmp	.+4      	; 0x270 <_ZN6Device9getStatusE4PORT3PIN+0x26>
 26c:	95 95       	asr	r25
 26e:	87 95       	ror	r24
 270:	6a 95       	dec	r22
 272:	e2 f7       	brpl	.-8      	; 0x26c <_ZN6Device9getStatusE4PORT3PIN+0x22>
 274:	81 70       	andi	r24, 0x01	; 1
 276:	08 95       	ret
 278:	08 95       	ret

0000027a <_ZN3LED10initializeEv>:
 27a:	cf 93       	push	r28
 27c:	df 93       	push	r29
 27e:	ec 01       	movw	r28, r24
 280:	41 e0       	ldi	r20, 0x01	; 1
 282:	6c 81       	ldd	r22, Y+4	; 0x04
 284:	8b 81       	ldd	r24, Y+3	; 0x03
 286:	0e 94 a3 00 	call	0x146	; 0x146 <_ZN6Device12setDirectionE4PORT3PINb>
 28a:	40 e0       	ldi	r20, 0x00	; 0
 28c:	6c 81       	ldd	r22, Y+4	; 0x04
 28e:	8b 81       	ldd	r24, Y+3	; 0x03
 290:	df 91       	pop	r29
 292:	cf 91       	pop	r28
 294:	0c 94 41 00 	jmp	0x82	; 0x82 <_ZN6Device9setStatusE4PORT3PINb>

00000298 <_ZN3LEDC1E4PORT3PIN>:
 298:	2c e6       	ldi	r18, 0x6C	; 108
 29a:	30 e0       	ldi	r19, 0x00	; 0
 29c:	fc 01       	movw	r30, r24
 29e:	31 83       	std	Z+1, r19	; 0x01
 2a0:	20 83       	st	Z, r18
 2a2:	63 83       	std	Z+3, r22	; 0x03
 2a4:	44 83       	std	Z+4, r20	; 0x04
 2a6:	12 82       	std	Z+2, r1	; 0x02
 2a8:	0c 94 3d 01 	jmp	0x27a	; 0x27a <_ZN3LED10initializeEv>

000002ac <_ZN3LED2onEv>:
 2ac:	cf 93       	push	r28
 2ae:	df 93       	push	r29
 2b0:	ec 01       	movw	r28, r24
 2b2:	41 e0       	ldi	r20, 0x01	; 1
 2b4:	6c 81       	ldd	r22, Y+4	; 0x04
 2b6:	8b 81       	ldd	r24, Y+3	; 0x03
 2b8:	0e 94 41 00 	call	0x82	; 0x82 <_ZN6Device9setStatusE4PORT3PINb>
 2bc:	81 e0       	ldi	r24, 0x01	; 1
 2be:	8a 83       	std	Y+2, r24	; 0x02
 2c0:	df 91       	pop	r29
 2c2:	cf 91       	pop	r28
 2c4:	08 95       	ret

000002c6 <_ZN3LED3offEv>:
 2c6:	cf 93       	push	r28
 2c8:	df 93       	push	r29
 2ca:	ec 01       	movw	r28, r24
 2cc:	40 e0       	ldi	r20, 0x00	; 0
 2ce:	6c 81       	ldd	r22, Y+4	; 0x04
 2d0:	8b 81       	ldd	r24, Y+3	; 0x03
 2d2:	0e 94 41 00 	call	0x82	; 0x82 <_ZN6Device9setStatusE4PORT3PINb>
 2d6:	1a 82       	std	Y+2, r1	; 0x02
 2d8:	df 91       	pop	r29
 2da:	cf 91       	pop	r28
 2dc:	08 95       	ret

000002de <_ZN3LED6toggleEv>:
 2de:	cf 93       	push	r28
 2e0:	df 93       	push	r29
 2e2:	ec 01       	movw	r28, r24
 2e4:	8a 81       	ldd	r24, Y+2	; 0x02
 2e6:	81 11       	cpse	r24, r1
 2e8:	04 c0       	rjmp	.+8      	; 0x2f2 <_ZN3LED6toggleEv+0x14>
 2ea:	ce 01       	movw	r24, r28
 2ec:	0e 94 56 01 	call	0x2ac	; 0x2ac <_ZN3LED2onEv>
 2f0:	03 c0       	rjmp	.+6      	; 0x2f8 <_ZN3LED6toggleEv+0x1a>
 2f2:	ce 01       	movw	r24, r28
 2f4:	0e 94 63 01 	call	0x2c6	; 0x2c6 <_ZN3LED3offEv>
 2f8:	8a 81       	ldd	r24, Y+2	; 0x02
 2fa:	df 91       	pop	r29
 2fc:	cf 91       	pop	r28
 2fe:	08 95       	ret

00000300 <_ZN15ParallelTextLCD13action_enableEv>:
 300:	cf 93       	push	r28
 302:	df 93       	push	r29
 304:	ec 01       	movw	r28, r24
 306:	41 e0       	ldi	r20, 0x01	; 1
 308:	6c 81       	ldd	r22, Y+4	; 0x04
 30a:	8b 81       	ldd	r24, Y+3	; 0x03
 30c:	0e 94 41 00 	call	0x82	; 0x82 <_ZN6Device9setStatusE4PORT3PINb>
 310:	00 00       	nop
 312:	00 00       	nop
 314:	40 e0       	ldi	r20, 0x00	; 0
 316:	6c 81       	ldd	r22, Y+4	; 0x04
 318:	8b 81       	ldd	r24, Y+3	; 0x03
 31a:	df 91       	pop	r29
 31c:	cf 91       	pop	r28
 31e:	0c 94 41 00 	jmp	0x82	; 0x82 <_ZN6Device9setStatusE4PORT3PINb>

00000322 <_ZN15ParallelTextLCD9wait_busyEv>:
 322:	cf 93       	push	r28
 324:	df 93       	push	r29
 326:	ec 01       	movw	r28, r24
 328:	60 e0       	ldi	r22, 0x00	; 0
 32a:	70 e0       	ldi	r23, 0x00	; 0
 32c:	8a 81       	ldd	r24, Y+2	; 0x02
 32e:	0e 94 15 01 	call	0x22a	; 0x22a <_ZN6Device12setDirectionE4PORTi>
 332:	41 e0       	ldi	r20, 0x01	; 1
 334:	6d 81       	ldd	r22, Y+5	; 0x05
 336:	8b 81       	ldd	r24, Y+3	; 0x03
 338:	0e 94 41 00 	call	0x82	; 0x82 <_ZN6Device9setStatusE4PORT3PINb>
 33c:	40 e0       	ldi	r20, 0x00	; 0
 33e:	6e 81       	ldd	r22, Y+6	; 0x06
 340:	8b 81       	ldd	r24, Y+3	; 0x03
 342:	0e 94 41 00 	call	0x82	; 0x82 <_ZN6Device9setStatusE4PORT3PINb>
 346:	67 e0       	ldi	r22, 0x07	; 7
 348:	8a 81       	ldd	r24, Y+2	; 0x02
 34a:	0e 94 25 01 	call	0x24a	; 0x24a <_ZN6Device9getStatusE4PORT3PIN>
 34e:	81 11       	cpse	r24, r1
 350:	04 c0       	rjmp	.+8      	; 0x35a <_ZN15ParallelTextLCD9wait_busyEv+0x38>
 352:	ce 01       	movw	r24, r28
 354:	0e 94 80 01 	call	0x300	; 0x300 <_ZN15ParallelTextLCD13action_enableEv>
 358:	f6 cf       	rjmp	.-20     	; 0x346 <_ZN15ParallelTextLCD9wait_busyEv+0x24>
 35a:	6f ef       	ldi	r22, 0xFF	; 255
 35c:	70 e0       	ldi	r23, 0x00	; 0
 35e:	8a 81       	ldd	r24, Y+2	; 0x02
 360:	df 91       	pop	r29
 362:	cf 91       	pop	r28
 364:	0c 94 15 01 	jmp	0x22a	; 0x22a <_ZN6Device12setDirectionE4PORTi>

00000368 <_ZN15ParallelTextLCD7commandEh>:
 368:	0f 93       	push	r16
 36a:	1f 93       	push	r17
 36c:	cf 93       	push	r28
 36e:	df 93       	push	r29
 370:	1f 92       	push	r1
 372:	cd b7       	in	r28, 0x3d	; 61
 374:	de b7       	in	r29, 0x3e	; 62
 376:	8c 01       	movw	r16, r24
 378:	69 83       	std	Y+1, r22	; 0x01
 37a:	0e 94 91 01 	call	0x322	; 0x322 <_ZN15ParallelTextLCD9wait_busyEv>
 37e:	69 81       	ldd	r22, Y+1	; 0x01
 380:	70 e0       	ldi	r23, 0x00	; 0
 382:	f8 01       	movw	r30, r16
 384:	82 81       	ldd	r24, Z+2	; 0x02
 386:	0e 94 05 01 	call	0x20a	; 0x20a <_ZN6Device9setStatusE4PORTi>
 38a:	40 e0       	ldi	r20, 0x00	; 0
 38c:	f8 01       	movw	r30, r16
 38e:	65 81       	ldd	r22, Z+5	; 0x05
 390:	83 81       	ldd	r24, Z+3	; 0x03
 392:	0e 94 41 00 	call	0x82	; 0x82 <_ZN6Device9setStatusE4PORT3PINb>
 396:	40 e0       	ldi	r20, 0x00	; 0
 398:	f8 01       	movw	r30, r16
 39a:	66 81       	ldd	r22, Z+6	; 0x06
 39c:	83 81       	ldd	r24, Z+3	; 0x03
 39e:	0e 94 41 00 	call	0x82	; 0x82 <_ZN6Device9setStatusE4PORT3PINb>
 3a2:	c8 01       	movw	r24, r16
 3a4:	0e 94 80 01 	call	0x300	; 0x300 <_ZN15ParallelTextLCD13action_enableEv>
 3a8:	60 e0       	ldi	r22, 0x00	; 0
 3aa:	70 e0       	ldi	r23, 0x00	; 0
 3ac:	f8 01       	movw	r30, r16
 3ae:	82 81       	ldd	r24, Z+2	; 0x02
 3b0:	0f 90       	pop	r0
 3b2:	df 91       	pop	r29
 3b4:	cf 91       	pop	r28
 3b6:	1f 91       	pop	r17
 3b8:	0f 91       	pop	r16
 3ba:	0c 94 05 01 	jmp	0x20a	; 0x20a <_ZN6Device9setStatusE4PORTi>

000003be <_ZN15ParallelTextLCD10initializeEv>:
 3be:	cf 93       	push	r28
 3c0:	df 93       	push	r29
 3c2:	ec 01       	movw	r28, r24
 3c4:	41 e0       	ldi	r20, 0x01	; 1
 3c6:	6e 81       	ldd	r22, Y+6	; 0x06
 3c8:	8b 81       	ldd	r24, Y+3	; 0x03
 3ca:	0e 94 a3 00 	call	0x146	; 0x146 <_ZN6Device12setDirectionE4PORT3PINb>
 3ce:	41 e0       	ldi	r20, 0x01	; 1
 3d0:	6d 81       	ldd	r22, Y+5	; 0x05
 3d2:	8b 81       	ldd	r24, Y+3	; 0x03
 3d4:	0e 94 a3 00 	call	0x146	; 0x146 <_ZN6Device12setDirectionE4PORT3PINb>
 3d8:	41 e0       	ldi	r20, 0x01	; 1
 3da:	6c 81       	ldd	r22, Y+4	; 0x04
 3dc:	8b 81       	ldd	r24, Y+3	; 0x03
 3de:	0e 94 a3 00 	call	0x146	; 0x146 <_ZN6Device12setDirectionE4PORT3PINb>
 3e2:	85 ea       	ldi	r24, 0xA5	; 165
 3e4:	9e e0       	ldi	r25, 0x0E	; 14
 3e6:	01 97       	sbiw	r24, 0x01	; 1
 3e8:	f1 f7       	brne	.-4      	; 0x3e6 <_ZN15ParallelTextLCD10initializeEv+0x28>
 3ea:	00 c0       	rjmp	.+0      	; 0x3ec <_ZN15ParallelTextLCD10initializeEv+0x2e>
 3ec:	00 00       	nop
 3ee:	61 e0       	ldi	r22, 0x01	; 1
 3f0:	ce 01       	movw	r24, r28
 3f2:	0e 94 b4 01 	call	0x368	; 0x368 <_ZN15ParallelTextLCD7commandEh>
 3f6:	83 ef       	ldi	r24, 0xF3	; 243
 3f8:	91 e0       	ldi	r25, 0x01	; 1
 3fa:	01 97       	sbiw	r24, 0x01	; 1
 3fc:	f1 f7       	brne	.-4      	; 0x3fa <_ZN15ParallelTextLCD10initializeEv+0x3c>
 3fe:	00 c0       	rjmp	.+0      	; 0x400 <_ZN15ParallelTextLCD10initializeEv+0x42>
 400:	00 00       	nop
 402:	68 e3       	ldi	r22, 0x38	; 56
 404:	ce 01       	movw	r24, r28
 406:	0e 94 b4 01 	call	0x368	; 0x368 <_ZN15ParallelTextLCD7commandEh>
 40a:	90 e1       	ldi	r25, 0x10	; 16
 40c:	9a 95       	dec	r25
 40e:	f1 f7       	brne	.-4      	; 0x40c <_ZN15ParallelTextLCD10initializeEv+0x4e>
 410:	00 c0       	rjmp	.+0      	; 0x412 <_ZN15ParallelTextLCD10initializeEv+0x54>
 412:	6c e0       	ldi	r22, 0x0C	; 12
 414:	ce 01       	movw	r24, r28
 416:	0e 94 b4 01 	call	0x368	; 0x368 <_ZN15ParallelTextLCD7commandEh>
 41a:	80 e1       	ldi	r24, 0x10	; 16
 41c:	8a 95       	dec	r24
 41e:	f1 f7       	brne	.-4      	; 0x41c <_ZN15ParallelTextLCD10initializeEv+0x5e>
 420:	00 c0       	rjmp	.+0      	; 0x422 <_ZN15ParallelTextLCD10initializeEv+0x64>
 422:	df 91       	pop	r29
 424:	cf 91       	pop	r28
 426:	08 95       	ret

00000428 <_ZN15ParallelTextLCDC1E4PORTS0_3PINS1_S1_>:
 428:	ef 92       	push	r14
 42a:	0f 93       	push	r16
 42c:	cf 93       	push	r28
 42e:	df 93       	push	r29
 430:	ec 01       	movw	r28, r24
 432:	82 e7       	ldi	r24, 0x72	; 114
 434:	90 e0       	ldi	r25, 0x00	; 0
 436:	99 83       	std	Y+1, r25	; 0x01
 438:	88 83       	st	Y, r24
 43a:	88 e0       	ldi	r24, 0x08	; 8
 43c:	e0 e6       	ldi	r30, 0x60	; 96
 43e:	f0 e0       	ldi	r31, 0x00	; 0
 440:	de 01       	movw	r26, r28
 442:	17 96       	adiw	r26, 0x07	; 7
 444:	01 90       	ld	r0, Z+
 446:	0d 92       	st	X+, r0
 448:	8a 95       	dec	r24
 44a:	e1 f7       	brne	.-8      	; 0x444 <_ZN15ParallelTextLCDC1E4PORTS0_3PINS1_S1_+0x1c>
 44c:	6a 83       	std	Y+2, r22	; 0x02
 44e:	4b 83       	std	Y+3, r20	; 0x03
 450:	2e 83       	std	Y+6, r18	; 0x06
 452:	0d 83       	std	Y+5, r16	; 0x05
 454:	ec 82       	std	Y+4, r14	; 0x04
 456:	ce 01       	movw	r24, r28
 458:	df 91       	pop	r29
 45a:	cf 91       	pop	r28
 45c:	0f 91       	pop	r16
 45e:	ef 90       	pop	r14
 460:	0c 94 df 01 	jmp	0x3be	; 0x3be <_ZN15ParallelTextLCD10initializeEv>

00000464 <_ZN15ParallelTextLCD8positionEii>:
 464:	60 58       	subi	r22, 0x80	; 128
 466:	fa 01       	movw	r30, r20
 468:	ee 0f       	add	r30, r30
 46a:	ff 1f       	adc	r31, r31
 46c:	e8 0f       	add	r30, r24
 46e:	f9 1f       	adc	r31, r25
 470:	27 81       	ldd	r18, Z+7	; 0x07
 472:	62 0f       	add	r22, r18
 474:	0c 94 b4 01 	jmp	0x368	; 0x368 <_ZN15ParallelTextLCD7commandEh>

00000478 <_ZN15ParallelTextLCD5clearEv>:
 478:	61 e0       	ldi	r22, 0x01	; 1
 47a:	0e 94 b4 01 	call	0x368	; 0x368 <_ZN15ParallelTextLCD7commandEh>
 47e:	83 ef       	ldi	r24, 0xF3	; 243
 480:	91 e0       	ldi	r25, 0x01	; 1
 482:	01 97       	sbiw	r24, 0x01	; 1
 484:	f1 f7       	brne	.-4      	; 0x482 <_ZN15ParallelTextLCD5clearEv+0xa>
 486:	00 c0       	rjmp	.+0      	; 0x488 <_ZN15ParallelTextLCD5clearEv+0x10>
 488:	00 00       	nop
 48a:	08 95       	ret

0000048c <_ZN15ParallelTextLCD9characterEh>:
 48c:	0f 93       	push	r16
 48e:	1f 93       	push	r17
 490:	cf 93       	push	r28
 492:	df 93       	push	r29
 494:	1f 92       	push	r1
 496:	cd b7       	in	r28, 0x3d	; 61
 498:	de b7       	in	r29, 0x3e	; 62
 49a:	8c 01       	movw	r16, r24
 49c:	69 83       	std	Y+1, r22	; 0x01
 49e:	0e 94 91 01 	call	0x322	; 0x322 <_ZN15ParallelTextLCD9wait_busyEv>
 4a2:	69 81       	ldd	r22, Y+1	; 0x01
 4a4:	70 e0       	ldi	r23, 0x00	; 0
 4a6:	f8 01       	movw	r30, r16
 4a8:	82 81       	ldd	r24, Z+2	; 0x02
 4aa:	0e 94 05 01 	call	0x20a	; 0x20a <_ZN6Device9setStatusE4PORTi>
 4ae:	40 e0       	ldi	r20, 0x00	; 0
 4b0:	f8 01       	movw	r30, r16
 4b2:	65 81       	ldd	r22, Z+5	; 0x05
 4b4:	83 81       	ldd	r24, Z+3	; 0x03
 4b6:	0e 94 41 00 	call	0x82	; 0x82 <_ZN6Device9setStatusE4PORT3PINb>
 4ba:	41 e0       	ldi	r20, 0x01	; 1
 4bc:	f8 01       	movw	r30, r16
 4be:	66 81       	ldd	r22, Z+6	; 0x06
 4c0:	83 81       	ldd	r24, Z+3	; 0x03
 4c2:	0e 94 41 00 	call	0x82	; 0x82 <_ZN6Device9setStatusE4PORT3PINb>
 4c6:	c8 01       	movw	r24, r16
 4c8:	0e 94 80 01 	call	0x300	; 0x300 <_ZN15ParallelTextLCD13action_enableEv>
 4cc:	60 e0       	ldi	r22, 0x00	; 0
 4ce:	70 e0       	ldi	r23, 0x00	; 0
 4d0:	f8 01       	movw	r30, r16
 4d2:	82 81       	ldd	r24, Z+2	; 0x02
 4d4:	0f 90       	pop	r0
 4d6:	df 91       	pop	r29
 4d8:	cf 91       	pop	r28
 4da:	1f 91       	pop	r17
 4dc:	0f 91       	pop	r16
 4de:	0c 94 05 01 	jmp	0x20a	; 0x20a <_ZN6Device9setStatusE4PORTi>

000004e2 <_ZN15ParallelTextLCD6stringEPc>:
 4e2:	0f 93       	push	r16
 4e4:	1f 93       	push	r17
 4e6:	cf 93       	push	r28
 4e8:	df 93       	push	r29
 4ea:	8c 01       	movw	r16, r24
 4ec:	eb 01       	movw	r28, r22
 4ee:	69 91       	ld	r22, Y+
 4f0:	66 23       	and	r22, r22
 4f2:	21 f0       	breq	.+8      	; 0x4fc <_ZN15ParallelTextLCD6stringEPc+0x1a>
 4f4:	c8 01       	movw	r24, r16
 4f6:	0e 94 46 02 	call	0x48c	; 0x48c <_ZN15ParallelTextLCD9characterEh>
 4fa:	f9 cf       	rjmp	.-14     	; 0x4ee <_ZN15ParallelTextLCD6stringEPc+0xc>
 4fc:	df 91       	pop	r29
 4fe:	cf 91       	pop	r28
 500:	1f 91       	pop	r17
 502:	0f 91       	pop	r16
 504:	08 95       	ret

00000506 <_ZN15ParallelTextLCD6stringEiiPc>:
 506:	0f 93       	push	r16
 508:	1f 93       	push	r17
 50a:	cf 93       	push	r28
 50c:	df 93       	push	r29
 50e:	ec 01       	movw	r28, r24
 510:	89 01       	movw	r16, r18
 512:	0e 94 32 02 	call	0x464	; 0x464 <_ZN15ParallelTextLCD8positionEii>
 516:	b8 01       	movw	r22, r16
 518:	ce 01       	movw	r24, r28
 51a:	df 91       	pop	r29
 51c:	cf 91       	pop	r28
 51e:	1f 91       	pop	r17
 520:	0f 91       	pop	r16
 522:	0c 94 71 02 	jmp	0x4e2	; 0x4e2 <_ZN15ParallelTextLCD6stringEPc>

00000526 <_ZN15ParallelTextLCD7integerEiiii>:
 526:	4f 92       	push	r4
 528:	5f 92       	push	r5
 52a:	6f 92       	push	r6
 52c:	7f 92       	push	r7
 52e:	8f 92       	push	r8
 530:	9f 92       	push	r9
 532:	af 92       	push	r10
 534:	bf 92       	push	r11
 536:	cf 92       	push	r12
 538:	df 92       	push	r13
 53a:	ef 92       	push	r14
 53c:	ff 92       	push	r15
 53e:	0f 93       	push	r16
 540:	1f 93       	push	r17
 542:	cf 93       	push	r28
 544:	df 93       	push	r29
 546:	cd b7       	in	r28, 0x3d	; 61
 548:	de b7       	in	r29, 0x3e	; 62
 54a:	7c 01       	movw	r14, r24
 54c:	4b 01       	movw	r8, r22
 54e:	3a 01       	movw	r6, r20
 550:	c9 01       	movw	r24, r18
 552:	ad b6       	in	r10, 0x3d	; 61
 554:	be b6       	in	r11, 0x3e	; 62
 556:	2d b7       	in	r18, 0x3d	; 61
 558:	3e b7       	in	r19, 0x3e	; 62
 55a:	20 1b       	sub	r18, r16
 55c:	31 0b       	sbc	r19, r17
 55e:	0f b6       	in	r0, 0x3f	; 63
 560:	f8 94       	cli
 562:	3e bf       	out	0x3e, r19	; 62
 564:	0f be       	out	0x3f, r0	; 63
 566:	2d bf       	out	0x3d, r18	; 61
 568:	2f 5f       	subi	r18, 0xFF	; 255
 56a:	3f 4f       	sbci	r19, 0xFF	; 255
 56c:	69 01       	movw	r12, r18
 56e:	4a e0       	ldi	r20, 0x0A	; 10
 570:	b9 01       	movw	r22, r18
 572:	0e 94 a4 03 	call	0x748	; 0x748 <__itoa_ncheck>
 576:	41 2c       	mov	r4, r1
 578:	51 2c       	mov	r5, r1
 57a:	40 16       	cp	r4, r16
 57c:	51 06       	cpc	r5, r17
 57e:	4c f4       	brge	.+18     	; 0x592 <_ZN15ParallelTextLCD7integerEiiii+0x6c>
 580:	61 e9       	ldi	r22, 0x91	; 145
 582:	70 e0       	ldi	r23, 0x00	; 0
 584:	c7 01       	movw	r24, r14
 586:	0e 94 71 02 	call	0x4e2	; 0x4e2 <_ZN15ParallelTextLCD6stringEPc>
 58a:	3f ef       	ldi	r19, 0xFF	; 255
 58c:	43 1a       	sub	r4, r19
 58e:	53 0a       	sbc	r5, r19
 590:	f4 cf       	rjmp	.-24     	; 0x57a <_ZN15ParallelTextLCD7integerEiiii+0x54>
 592:	96 01       	movw	r18, r12
 594:	a3 01       	movw	r20, r6
 596:	b4 01       	movw	r22, r8
 598:	c7 01       	movw	r24, r14
 59a:	0e 94 83 02 	call	0x506	; 0x506 <_ZN15ParallelTextLCD6stringEiiPc>
 59e:	0f b6       	in	r0, 0x3f	; 63
 5a0:	f8 94       	cli
 5a2:	be be       	out	0x3e, r11	; 62
 5a4:	0f be       	out	0x3f, r0	; 63
 5a6:	ad be       	out	0x3d, r10	; 61
 5a8:	df 91       	pop	r29
 5aa:	cf 91       	pop	r28
 5ac:	1f 91       	pop	r17
 5ae:	0f 91       	pop	r16
 5b0:	ff 90       	pop	r15
 5b2:	ef 90       	pop	r14
 5b4:	df 90       	pop	r13
 5b6:	cf 90       	pop	r12
 5b8:	bf 90       	pop	r11
 5ba:	af 90       	pop	r10
 5bc:	9f 90       	pop	r9
 5be:	8f 90       	pop	r8
 5c0:	7f 90       	pop	r7
 5c2:	6f 90       	pop	r6
 5c4:	5f 90       	pop	r5
 5c6:	4f 90       	pop	r4
 5c8:	08 95       	ret

000005ca <_ZN16PushButtonSwitch10initializeEv>:
 5ca:	cf 93       	push	r28
 5cc:	df 93       	push	r29
 5ce:	ec 01       	movw	r28, r24
 5d0:	40 e0       	ldi	r20, 0x00	; 0
 5d2:	6e 81       	ldd	r22, Y+6	; 0x06
 5d4:	8d 81       	ldd	r24, Y+5	; 0x05
 5d6:	0e 94 a3 00 	call	0x146	; 0x146 <_ZN6Device12setDirectionE4PORT3PINb>
 5da:	48 85       	ldd	r20, Y+8	; 0x08
 5dc:	6e 81       	ldd	r22, Y+6	; 0x06
 5de:	8d 81       	ldd	r24, Y+5	; 0x05
 5e0:	0e 94 41 00 	call	0x82	; 0x82 <_ZN6Device9setStatusE4PORT3PINb>
 5e4:	1a 82       	std	Y+2, r1	; 0x02
 5e6:	df 91       	pop	r29
 5e8:	cf 91       	pop	r28
 5ea:	08 95       	ret

000005ec <_ZN16PushButtonSwitchC1E4PORT3PINbbi>:
 5ec:	ef 92       	push	r14
 5ee:	ff 92       	push	r15
 5f0:	0f 93       	push	r16
 5f2:	fc 01       	movw	r30, r24
 5f4:	88 e7       	ldi	r24, 0x78	; 120
 5f6:	90 e0       	ldi	r25, 0x00	; 0
 5f8:	91 83       	std	Z+1, r25	; 0x01
 5fa:	80 83       	st	Z, r24
 5fc:	65 83       	std	Z+5, r22	; 0x05
 5fe:	46 83       	std	Z+6, r20	; 0x06
 600:	27 83       	std	Z+7, r18	; 0x07
 602:	00 87       	std	Z+8, r16	; 0x08
 604:	f4 82       	std	Z+4, r15	; 0x04
 606:	e3 82       	std	Z+3, r14	; 0x03
 608:	cf 01       	movw	r24, r30
 60a:	0f 91       	pop	r16
 60c:	ff 90       	pop	r15
 60e:	ef 90       	pop	r14
 610:	0c 94 e5 02 	jmp	0x5ca	; 0x5ca <_ZN16PushButtonSwitch10initializeEv>

00000614 <_ZN16PushButtonSwitch10checkStateEv>:
 614:	fc 01       	movw	r30, r24
 616:	80 85       	ldd	r24, Z+8	; 0x08
 618:	66 81       	ldd	r22, Z+6	; 0x06
 61a:	88 23       	and	r24, r24
 61c:	31 f0       	breq	.+12     	; 0x62a <_ZN16PushButtonSwitch10checkStateEv+0x16>
 61e:	85 81       	ldd	r24, Z+5	; 0x05
 620:	0e 94 25 01 	call	0x24a	; 0x24a <_ZN6Device9getStatusE4PORT3PIN>
 624:	91 e0       	ldi	r25, 0x01	; 1
 626:	89 27       	eor	r24, r25
 628:	08 95       	ret
 62a:	85 81       	ldd	r24, Z+5	; 0x05
 62c:	0c 94 25 01 	jmp	0x24a	; 0x24a <_ZN6Device9getStatusE4PORT3PIN>

00000630 <_ZN16PushButtonSwitch5stateEv>:
 630:	cf 93       	push	r28
 632:	df 93       	push	r29
 634:	ec 01       	movw	r28, r24
 636:	0e 94 0a 03 	call	0x614	; 0x614 <_ZN16PushButtonSwitch10checkStateEv>
 63a:	9a 81       	ldd	r25, Y+2	; 0x02
 63c:	89 17       	cp	r24, r25
 63e:	29 f0       	breq	.+10     	; 0x64a <_ZN16PushButtonSwitch5stateEv+0x1a>
 640:	ce 01       	movw	r24, r28
 642:	0e 94 0a 03 	call	0x614	; 0x614 <_ZN16PushButtonSwitch10checkStateEv>
 646:	98 2f       	mov	r25, r24
 648:	8a 83       	std	Y+2, r24	; 0x02
 64a:	89 2f       	mov	r24, r25
 64c:	df 91       	pop	r29
 64e:	cf 91       	pop	r28
 650:	08 95       	ret

00000652 <main>:
 652:	cf 93       	push	r28
 654:	df 93       	push	r29
 656:	cd b7       	in	r28, 0x3d	; 61
 658:	de b7       	in	r29, 0x3e	; 62
 65a:	6d 97       	sbiw	r28, 0x1d	; 29
 65c:	0f b6       	in	r0, 0x3f	; 63
 65e:	f8 94       	cli
 660:	de bf       	out	0x3e, r29	; 62
 662:	0f be       	out	0x3f, r0	; 63
 664:	cd bf       	out	0x3d, r28	; 61
 666:	46 e0       	ldi	r20, 0x06	; 6
 668:	62 e0       	ldi	r22, 0x02	; 2
 66a:	ce 01       	movw	r24, r28
 66c:	49 96       	adiw	r24, 0x19	; 25
 66e:	0e 94 4c 01 	call	0x298	; 0x298 <_ZN3LEDC1E4PORT3PIN>
 672:	84 e6       	ldi	r24, 0x64	; 100
 674:	e8 2e       	mov	r14, r24
 676:	f1 2c       	mov	r15, r1
 678:	01 e0       	ldi	r16, 0x01	; 1
 67a:	21 e0       	ldi	r18, 0x01	; 1
 67c:	40 e0       	ldi	r20, 0x00	; 0
 67e:	60 e0       	ldi	r22, 0x00	; 0
 680:	ce 01       	movw	r24, r28
 682:	40 96       	adiw	r24, 0x10	; 16
 684:	0e 94 f6 02 	call	0x5ec	; 0x5ec <_ZN16PushButtonSwitchC1E4PORT3PINbbi>
 688:	95 e0       	ldi	r25, 0x05	; 5
 68a:	e9 2e       	mov	r14, r25
 68c:	07 e0       	ldi	r16, 0x07	; 7
 68e:	22 e0       	ldi	r18, 0x02	; 2
 690:	43 e0       	ldi	r20, 0x03	; 3
 692:	61 e0       	ldi	r22, 0x01	; 1
 694:	ce 01       	movw	r24, r28
 696:	01 96       	adiw	r24, 0x01	; 1
 698:	0e 94 14 02 	call	0x428	; 0x428 <_ZN15ParallelTextLCDC1E4PORTS0_3PINS1_S1_>
 69c:	ce 01       	movw	r24, r28
 69e:	49 96       	adiw	r24, 0x19	; 25
 6a0:	0e 94 56 01 	call	0x2ac	; 0x2ac <_ZN3LED2onEv>
 6a4:	2a e7       	ldi	r18, 0x7A	; 122
 6a6:	30 e0       	ldi	r19, 0x00	; 0
 6a8:	40 e0       	ldi	r20, 0x00	; 0
 6aa:	50 e0       	ldi	r21, 0x00	; 0
 6ac:	60 e0       	ldi	r22, 0x00	; 0
 6ae:	70 e0       	ldi	r23, 0x00	; 0
 6b0:	ce 01       	movw	r24, r28
 6b2:	01 96       	adiw	r24, 0x01	; 1
 6b4:	0e 94 83 02 	call	0x506	; 0x506 <_ZN15ParallelTextLCD6stringEiiPc>
 6b8:	05 e0       	ldi	r16, 0x05	; 5
 6ba:	10 e0       	ldi	r17, 0x00	; 0
 6bc:	2d e1       	ldi	r18, 0x1D	; 29
 6be:	35 e0       	ldi	r19, 0x05	; 5
 6c0:	41 e0       	ldi	r20, 0x01	; 1
 6c2:	50 e0       	ldi	r21, 0x00	; 0
 6c4:	67 e0       	ldi	r22, 0x07	; 7
 6c6:	70 e0       	ldi	r23, 0x00	; 0
 6c8:	ce 01       	movw	r24, r28
 6ca:	01 96       	adiw	r24, 0x01	; 1
 6cc:	0e 94 93 02 	call	0x526	; 0x526 <_ZN15ParallelTextLCD7integerEiiii>
 6d0:	2f e3       	ldi	r18, 0x3F	; 63
 6d2:	82 e4       	ldi	r24, 0x42	; 66
 6d4:	9f e0       	ldi	r25, 0x0F	; 15
 6d6:	21 50       	subi	r18, 0x01	; 1
 6d8:	80 40       	sbci	r24, 0x00	; 0
 6da:	90 40       	sbci	r25, 0x00	; 0
 6dc:	e1 f7       	brne	.-8      	; 0x6d6 <main+0x84>
 6de:	00 c0       	rjmp	.+0      	; 0x6e0 <main+0x8e>
 6e0:	00 00       	nop
 6e2:	ce 01       	movw	r24, r28
 6e4:	01 96       	adiw	r24, 0x01	; 1
 6e6:	0e 94 3c 02 	call	0x478	; 0x478 <_ZN15ParallelTextLCD5clearEv>
 6ea:	6b e8       	ldi	r22, 0x8B	; 139
 6ec:	70 e0       	ldi	r23, 0x00	; 0
 6ee:	ce 01       	movw	r24, r28
 6f0:	01 96       	adiw	r24, 0x01	; 1
 6f2:	0e 94 71 02 	call	0x4e2	; 0x4e2 <_ZN15ParallelTextLCD6stringEPc>
 6f6:	e1 2c       	mov	r14, r1
 6f8:	f1 2c       	mov	r15, r1
 6fa:	2f ef       	ldi	r18, 0xFF	; 255
 6fc:	e2 1a       	sub	r14, r18
 6fe:	f2 0a       	sbc	r15, r18
 700:	05 e0       	ldi	r16, 0x05	; 5
 702:	10 e0       	ldi	r17, 0x00	; 0
 704:	97 01       	movw	r18, r14
 706:	40 e0       	ldi	r20, 0x00	; 0
 708:	50 e0       	ldi	r21, 0x00	; 0
 70a:	67 e0       	ldi	r22, 0x07	; 7
 70c:	70 e0       	ldi	r23, 0x00	; 0
 70e:	ce 01       	movw	r24, r28
 710:	01 96       	adiw	r24, 0x01	; 1
 712:	0e 94 93 02 	call	0x526	; 0x526 <_ZN15ParallelTextLCD7integerEiiii>
 716:	ce 01       	movw	r24, r28
 718:	49 96       	adiw	r24, 0x19	; 25
 71a:	0e 94 6f 01 	call	0x2de	; 0x2de <_ZN3LED6toggleEv>
 71e:	ce 01       	movw	r24, r28
 720:	40 96       	adiw	r24, 0x10	; 16
 722:	0e 94 18 03 	call	0x630	; 0x630 <_ZN16PushButtonSwitch5stateEv>
 726:	88 23       	and	r24, r24
 728:	29 f0       	breq	.+10     	; 0x734 <main+0xe2>
 72a:	87 ea       	ldi	r24, 0xA7	; 167
 72c:	91 e6       	ldi	r25, 0x61	; 97
 72e:	01 97       	sbiw	r24, 0x01	; 1
 730:	f1 f7       	brne	.-4      	; 0x72e <main+0xdc>
 732:	07 c0       	rjmp	.+14     	; 0x742 <main+0xf0>
 734:	9f e3       	ldi	r25, 0x3F	; 63
 736:	2d e0       	ldi	r18, 0x0D	; 13
 738:	83 e0       	ldi	r24, 0x03	; 3
 73a:	91 50       	subi	r25, 0x01	; 1
 73c:	20 40       	sbci	r18, 0x00	; 0
 73e:	80 40       	sbci	r24, 0x00	; 0
 740:	e1 f7       	brne	.-8      	; 0x73a <main+0xe8>
 742:	00 c0       	rjmp	.+0      	; 0x744 <main+0xf2>
 744:	00 00       	nop
 746:	d9 cf       	rjmp	.-78     	; 0x6fa <main+0xa8>

00000748 <__itoa_ncheck>:
 748:	bb 27       	eor	r27, r27
 74a:	4a 30       	cpi	r20, 0x0A	; 10
 74c:	31 f4       	brne	.+12     	; 0x75a <__itoa_ncheck+0x12>
 74e:	99 23       	and	r25, r25
 750:	22 f4       	brpl	.+8      	; 0x75a <__itoa_ncheck+0x12>
 752:	bd e2       	ldi	r27, 0x2D	; 45
 754:	90 95       	com	r25
 756:	81 95       	neg	r24
 758:	9f 4f       	sbci	r25, 0xFF	; 255
 75a:	0c 94 b0 03 	jmp	0x760	; 0x760 <__utoa_common>

0000075e <__utoa_ncheck>:
 75e:	bb 27       	eor	r27, r27

00000760 <__utoa_common>:
 760:	fb 01       	movw	r30, r22
 762:	55 27       	eor	r21, r21
 764:	aa 27       	eor	r26, r26
 766:	88 0f       	add	r24, r24
 768:	99 1f       	adc	r25, r25
 76a:	aa 1f       	adc	r26, r26
 76c:	a4 17       	cp	r26, r20
 76e:	10 f0       	brcs	.+4      	; 0x774 <__utoa_common+0x14>
 770:	a4 1b       	sub	r26, r20
 772:	83 95       	inc	r24
 774:	50 51       	subi	r21, 0x10	; 16
 776:	b9 f7       	brne	.-18     	; 0x766 <__utoa_common+0x6>
 778:	a0 5d       	subi	r26, 0xD0	; 208
 77a:	aa 33       	cpi	r26, 0x3A	; 58
 77c:	08 f0       	brcs	.+2      	; 0x780 <__utoa_common+0x20>
 77e:	a9 5d       	subi	r26, 0xD9	; 217
 780:	a1 93       	st	Z+, r26
 782:	00 97       	sbiw	r24, 0x00	; 0
 784:	79 f7       	brne	.-34     	; 0x764 <__utoa_common+0x4>
 786:	b1 11       	cpse	r27, r1
 788:	b1 93       	st	Z+, r27
 78a:	11 92       	st	Z+, r1
 78c:	cb 01       	movw	r24, r22
 78e:	0c 94 c9 03 	jmp	0x792	; 0x792 <strrev>

00000792 <strrev>:
 792:	dc 01       	movw	r26, r24
 794:	fc 01       	movw	r30, r24
 796:	67 2f       	mov	r22, r23
 798:	71 91       	ld	r23, Z+
 79a:	77 23       	and	r23, r23
 79c:	e1 f7       	brne	.-8      	; 0x796 <strrev+0x4>
 79e:	32 97       	sbiw	r30, 0x02	; 2
 7a0:	04 c0       	rjmp	.+8      	; 0x7aa <strrev+0x18>
 7a2:	7c 91       	ld	r23, X
 7a4:	6d 93       	st	X+, r22
 7a6:	70 83       	st	Z, r23
 7a8:	62 91       	ld	r22, -Z
 7aa:	ae 17       	cp	r26, r30
 7ac:	bf 07       	cpc	r27, r31
 7ae:	c8 f3       	brcs	.-14     	; 0x7a2 <strrev+0x10>
 7b0:	08 95       	ret

000007b2 <_exit>:
 7b2:	f8 94       	cli

000007b4 <__stop_program>:
 7b4:	ff cf       	rjmp	.-2      	; 0x7b4 <__stop_program>
