
MicrocontrollerSystem.elf:     file format elf32-avr

Sections:
Idx Name          Size      VMA       LMA       File off  Algn
  0 .text         00000f9e  00000000  00000000  00000094  2**1
                  CONTENTS, ALLOC, LOAD, READONLY, CODE
  1 .data         000000fa  00800060  00000f9e  00001032  2**0
                  CONTENTS, ALLOC, LOAD, DATA
  2 .bss          00000007  0080015a  0080015a  0000112c  2**0
                  ALLOC
  3 .comment      00000030  00000000  00000000  0000112c  2**0
                  CONTENTS, READONLY
  4 .note.gnu.avr.deviceinfo 0000003c  00000000  00000000  0000115c  2**2
                  CONTENTS, READONLY

Disassembly of section .text:

00000000 <__vectors>:
   0:	0c 94 2c 00 	jmp	0x58	; 0x58 <__dtors_end>
   4:	0c 94 54 00 	jmp	0xa8	; 0xa8 <__bad_interrupt>
   8:	0c 94 54 00 	jmp	0xa8	; 0xa8 <__bad_interrupt>
   c:	0c 94 54 00 	jmp	0xa8	; 0xa8 <__bad_interrupt>
  10:	0c 94 54 00 	jmp	0xa8	; 0xa8 <__bad_interrupt>
  14:	0c 94 54 00 	jmp	0xa8	; 0xa8 <__bad_interrupt>
  18:	0c 94 54 00 	jmp	0xa8	; 0xa8 <__bad_interrupt>
  1c:	0c 94 54 00 	jmp	0xa8	; 0xa8 <__bad_interrupt>
  20:	0c 94 54 00 	jmp	0xa8	; 0xa8 <__bad_interrupt>
  24:	0c 94 54 00 	jmp	0xa8	; 0xa8 <__bad_interrupt>
  28:	0c 94 54 00 	jmp	0xa8	; 0xa8 <__bad_interrupt>
  2c:	0c 94 54 00 	jmp	0xa8	; 0xa8 <__bad_interrupt>
  30:	0c 94 54 00 	jmp	0xa8	; 0xa8 <__bad_interrupt>
  34:	0c 94 54 00 	jmp	0xa8	; 0xa8 <__bad_interrupt>
  38:	0c 94 54 00 	jmp	0xa8	; 0xa8 <__bad_interrupt>
  3c:	0c 94 54 00 	jmp	0xa8	; 0xa8 <__bad_interrupt>
  40:	0c 94 54 00 	jmp	0xa8	; 0xa8 <__bad_interrupt>
  44:	0c 94 54 00 	jmp	0xa8	; 0xa8 <__bad_interrupt>
  48:	0c 94 54 00 	jmp	0xa8	; 0xa8 <__bad_interrupt>
  4c:	0c 94 54 00 	jmp	0xa8	; 0xa8 <__bad_interrupt>
  50:	0c 94 54 00 	jmp	0xa8	; 0xa8 <__bad_interrupt>

00000054 <__ctors_start>:
  54:	0e 06       	cpc	r0, r30

00000056 <__ctors_end>:
  56:	12 06       	cpc	r1, r18

00000058 <__dtors_end>:
  58:	11 24       	eor	r1, r1
  5a:	1f be       	out	0x3f, r1	; 63
  5c:	cf e5       	ldi	r28, 0x5F	; 95
  5e:	d8 e0       	ldi	r29, 0x08	; 8
  60:	de bf       	out	0x3e, r29	; 62
  62:	cd bf       	out	0x3d, r28	; 61

00000064 <__do_copy_data>:
  64:	11 e0       	ldi	r17, 0x01	; 1
  66:	a0 e6       	ldi	r26, 0x60	; 96
  68:	b0 e0       	ldi	r27, 0x00	; 0
  6a:	ee e9       	ldi	r30, 0x9E	; 158
  6c:	ff e0       	ldi	r31, 0x0F	; 15
  6e:	02 c0       	rjmp	.+4      	; 0x74 <__do_copy_data+0x10>
  70:	05 90       	lpm	r0, Z+
  72:	0d 92       	st	X+, r0
  74:	aa 35       	cpi	r26, 0x5A	; 90
  76:	b1 07       	cpc	r27, r17
  78:	d9 f7       	brne	.-10     	; 0x70 <__do_copy_data+0xc>

0000007a <__do_clear_bss>:
  7a:	21 e0       	ldi	r18, 0x01	; 1
  7c:	aa e5       	ldi	r26, 0x5A	; 90
  7e:	b1 e0       	ldi	r27, 0x01	; 1
  80:	01 c0       	rjmp	.+2      	; 0x84 <.do_clear_bss_start>

00000082 <.do_clear_bss_loop>:
  82:	1d 92       	st	X+, r1

00000084 <.do_clear_bss_start>:
  84:	a1 36       	cpi	r26, 0x61	; 97
  86:	b2 07       	cpc	r27, r18
  88:	e1 f7       	brne	.-8      	; 0x82 <.do_clear_bss_loop>

0000008a <__do_global_ctors>:
  8a:	10 e0       	ldi	r17, 0x00	; 0
  8c:	cb e2       	ldi	r28, 0x2B	; 43
  8e:	d0 e0       	ldi	r29, 0x00	; 0
  90:	04 c0       	rjmp	.+8      	; 0x9a <__do_global_ctors+0x10>
  92:	21 97       	sbiw	r28, 0x01	; 1
  94:	fe 01       	movw	r30, r28
  96:	0e 94 bc 07 	call	0xf78	; 0xf78 <__tablejump2__>
  9a:	ca 32       	cpi	r28, 0x2A	; 42
  9c:	d1 07       	cpc	r29, r17
  9e:	c9 f7       	brne	.-14     	; 0x92 <__do_global_ctors+0x8>
  a0:	0e 94 e2 05 	call	0xbc4	; 0xbc4 <main>
  a4:	0c 94 c2 07 	jmp	0xf84	; 0xf84 <__do_global_dtors>

000000a8 <__bad_interrupt>:
  a8:	0c 94 00 00 	jmp	0	; 0x0 <__vectors>

000000ac <_ZN7atmicro6Device9setStatusENS_3PINEb>:
  ac:	66 23       	and	r22, r22
  ae:	09 f4       	brne	.+2      	; 0xb2 <_ZN7atmicro6Device9setStatusENS_3PINEb+0x6>
  b0:	3f c0       	rjmp	.+126    	; 0x130 <_ZN7atmicro6Device9setStatusENS_3PINEb+0x84>
  b2:	88 30       	cpi	r24, 0x08	; 8
  b4:	60 f4       	brcc	.+24     	; 0xce <_ZN7atmicro6Device9setStatusENS_3PINEb+0x22>
  b6:	4b b3       	in	r20, 0x1b	; 27
  b8:	21 e0       	ldi	r18, 0x01	; 1
  ba:	30 e0       	ldi	r19, 0x00	; 0
  bc:	b9 01       	movw	r22, r18
  be:	02 c0       	rjmp	.+4      	; 0xc4 <_ZN7atmicro6Device9setStatusENS_3PINEb+0x18>
  c0:	66 0f       	add	r22, r22
  c2:	77 1f       	adc	r23, r23
  c4:	8a 95       	dec	r24
  c6:	e2 f7       	brpl	.-8      	; 0xc0 <_ZN7atmicro6Device9setStatusENS_3PINEb+0x14>
  c8:	cb 01       	movw	r24, r22
  ca:	84 2b       	or	r24, r20
  cc:	3f c0       	rjmp	.+126    	; 0x14c <_ZN7atmicro6Device9setStatusENS_3PINEb+0xa0>
  ce:	98 ef       	ldi	r25, 0xF8	; 248
  d0:	98 0f       	add	r25, r24
  d2:	98 30       	cpi	r25, 0x08	; 8
  d4:	60 f4       	brcc	.+24     	; 0xee <_ZN7atmicro6Device9setStatusENS_3PINEb+0x42>
  d6:	48 b3       	in	r20, 0x18	; 24
  d8:	21 e0       	ldi	r18, 0x01	; 1
  da:	30 e0       	ldi	r19, 0x00	; 0
  dc:	b9 01       	movw	r22, r18
  de:	02 c0       	rjmp	.+4      	; 0xe4 <_ZN7atmicro6Device9setStatusENS_3PINEb+0x38>
  e0:	66 0f       	add	r22, r22
  e2:	77 1f       	adc	r23, r23
  e4:	9a 95       	dec	r25
  e6:	e2 f7       	brpl	.-8      	; 0xe0 <_ZN7atmicro6Device9setStatusENS_3PINEb+0x34>
  e8:	cb 01       	movw	r24, r22
  ea:	84 2b       	or	r24, r20
  ec:	41 c0       	rjmp	.+130    	; 0x170 <_ZN7atmicro6Device9setStatusENS_3PINEb+0xc4>
  ee:	90 ef       	ldi	r25, 0xF0	; 240
  f0:	98 0f       	add	r25, r24
  f2:	98 30       	cpi	r25, 0x08	; 8
  f4:	60 f4       	brcc	.+24     	; 0x10e <_ZN7atmicro6Device9setStatusENS_3PINEb+0x62>
  f6:	45 b3       	in	r20, 0x15	; 21
  f8:	21 e0       	ldi	r18, 0x01	; 1
  fa:	30 e0       	ldi	r19, 0x00	; 0
  fc:	b9 01       	movw	r22, r18
  fe:	02 c0       	rjmp	.+4      	; 0x104 <_ZN7atmicro6Device9setStatusENS_3PINEb+0x58>
 100:	66 0f       	add	r22, r22
 102:	77 1f       	adc	r23, r23
 104:	9a 95       	dec	r25
 106:	e2 f7       	brpl	.-8      	; 0x100 <_ZN7atmicro6Device9setStatusENS_3PINEb+0x54>
 108:	cb 01       	movw	r24, r22
 10a:	84 2b       	or	r24, r20
 10c:	43 c0       	rjmp	.+134    	; 0x194 <_ZN7atmicro6Device9setStatusENS_3PINEb+0xe8>
 10e:	98 ee       	ldi	r25, 0xE8	; 232
 110:	98 0f       	add	r25, r24
 112:	98 30       	cpi	r25, 0x08	; 8
 114:	08 f0       	brcs	.+2      	; 0x118 <_ZN7atmicro6Device9setStatusENS_3PINEb+0x6c>
 116:	51 c0       	rjmp	.+162    	; 0x1ba <_ZN7atmicro6Device9setStatusENS_3PINEb+0x10e>
 118:	42 b3       	in	r20, 0x12	; 18
 11a:	21 e0       	ldi	r18, 0x01	; 1
 11c:	30 e0       	ldi	r19, 0x00	; 0
 11e:	b9 01       	movw	r22, r18
 120:	02 c0       	rjmp	.+4      	; 0x126 <_ZN7atmicro6Device9setStatusENS_3PINEb+0x7a>
 122:	66 0f       	add	r22, r22
 124:	77 1f       	adc	r23, r23
 126:	9a 95       	dec	r25
 128:	e2 f7       	brpl	.-8      	; 0x122 <_ZN7atmicro6Device9setStatusENS_3PINEb+0x76>
 12a:	cb 01       	movw	r24, r22
 12c:	84 2b       	or	r24, r20
 12e:	44 c0       	rjmp	.+136    	; 0x1b8 <_ZN7atmicro6Device9setStatusENS_3PINEb+0x10c>
 130:	88 30       	cpi	r24, 0x08	; 8
 132:	70 f4       	brcc	.+28     	; 0x150 <_ZN7atmicro6Device9setStatusENS_3PINEb+0xa4>
 134:	4b b3       	in	r20, 0x1b	; 27
 136:	21 e0       	ldi	r18, 0x01	; 1
 138:	30 e0       	ldi	r19, 0x00	; 0
 13a:	b9 01       	movw	r22, r18
 13c:	02 c0       	rjmp	.+4      	; 0x142 <_ZN7atmicro6Device9setStatusENS_3PINEb+0x96>
 13e:	66 0f       	add	r22, r22
 140:	77 1f       	adc	r23, r23
 142:	8a 95       	dec	r24
 144:	e2 f7       	brpl	.-8      	; 0x13e <_ZN7atmicro6Device9setStatusENS_3PINEb+0x92>
 146:	cb 01       	movw	r24, r22
 148:	80 95       	com	r24
 14a:	84 23       	and	r24, r20
 14c:	8b bb       	out	0x1b, r24	; 27
 14e:	08 95       	ret
 150:	98 ef       	ldi	r25, 0xF8	; 248
 152:	98 0f       	add	r25, r24
 154:	98 30       	cpi	r25, 0x08	; 8
 156:	70 f4       	brcc	.+28     	; 0x174 <_ZN7atmicro6Device9setStatusENS_3PINEb+0xc8>
 158:	48 b3       	in	r20, 0x18	; 24
 15a:	21 e0       	ldi	r18, 0x01	; 1
 15c:	30 e0       	ldi	r19, 0x00	; 0
 15e:	b9 01       	movw	r22, r18
 160:	02 c0       	rjmp	.+4      	; 0x166 <_ZN7atmicro6Device9setStatusENS_3PINEb+0xba>
 162:	66 0f       	add	r22, r22
 164:	77 1f       	adc	r23, r23
 166:	9a 95       	dec	r25
 168:	e2 f7       	brpl	.-8      	; 0x162 <_ZN7atmicro6Device9setStatusENS_3PINEb+0xb6>
 16a:	cb 01       	movw	r24, r22
 16c:	80 95       	com	r24
 16e:	84 23       	and	r24, r20
 170:	88 bb       	out	0x18, r24	; 24
 172:	08 95       	ret
 174:	90 ef       	ldi	r25, 0xF0	; 240
 176:	98 0f       	add	r25, r24
 178:	98 30       	cpi	r25, 0x08	; 8
 17a:	70 f4       	brcc	.+28     	; 0x198 <_ZN7atmicro6Device9setStatusENS_3PINEb+0xec>
 17c:	45 b3       	in	r20, 0x15	; 21
 17e:	21 e0       	ldi	r18, 0x01	; 1
 180:	30 e0       	ldi	r19, 0x00	; 0
 182:	b9 01       	movw	r22, r18
 184:	02 c0       	rjmp	.+4      	; 0x18a <_ZN7atmicro6Device9setStatusENS_3PINEb+0xde>
 186:	66 0f       	add	r22, r22
 188:	77 1f       	adc	r23, r23
 18a:	9a 95       	dec	r25
 18c:	e2 f7       	brpl	.-8      	; 0x186 <_ZN7atmicro6Device9setStatusENS_3PINEb+0xda>
 18e:	cb 01       	movw	r24, r22
 190:	80 95       	com	r24
 192:	84 23       	and	r24, r20
 194:	85 bb       	out	0x15, r24	; 21
 196:	08 95       	ret
 198:	98 ee       	ldi	r25, 0xE8	; 232
 19a:	98 0f       	add	r25, r24
 19c:	98 30       	cpi	r25, 0x08	; 8
 19e:	68 f4       	brcc	.+26     	; 0x1ba <_ZN7atmicro6Device9setStatusENS_3PINEb+0x10e>
 1a0:	42 b3       	in	r20, 0x12	; 18
 1a2:	21 e0       	ldi	r18, 0x01	; 1
 1a4:	30 e0       	ldi	r19, 0x00	; 0
 1a6:	b9 01       	movw	r22, r18
 1a8:	02 c0       	rjmp	.+4      	; 0x1ae <_ZN7atmicro6Device9setStatusENS_3PINEb+0x102>
 1aa:	66 0f       	add	r22, r22
 1ac:	77 1f       	adc	r23, r23
 1ae:	9a 95       	dec	r25
 1b0:	e2 f7       	brpl	.-8      	; 0x1aa <_ZN7atmicro6Device9setStatusENS_3PINEb+0xfe>
 1b2:	cb 01       	movw	r24, r22
 1b4:	80 95       	com	r24
 1b6:	84 23       	and	r24, r20
 1b8:	82 bb       	out	0x12, r24	; 18
 1ba:	08 95       	ret

000001bc <_ZN7atmicro6Device12setDirectionENS_3PINEb>:
 1bc:	66 23       	and	r22, r22
 1be:	09 f4       	brne	.+2      	; 0x1c2 <_ZN7atmicro6Device12setDirectionENS_3PINEb+0x6>
 1c0:	3f c0       	rjmp	.+126    	; 0x240 <_ZN7atmicro6Device12setDirectionENS_3PINEb+0x84>
 1c2:	88 30       	cpi	r24, 0x08	; 8
 1c4:	60 f4       	brcc	.+24     	; 0x1de <_ZN7atmicro6Device12setDirectionENS_3PINEb+0x22>
 1c6:	4a b3       	in	r20, 0x1a	; 26
 1c8:	21 e0       	ldi	r18, 0x01	; 1
 1ca:	30 e0       	ldi	r19, 0x00	; 0
 1cc:	b9 01       	movw	r22, r18
 1ce:	02 c0       	rjmp	.+4      	; 0x1d4 <_ZN7atmicro6Device12setDirectionENS_3PINEb+0x18>
 1d0:	66 0f       	add	r22, r22
 1d2:	77 1f       	adc	r23, r23
 1d4:	8a 95       	dec	r24
 1d6:	e2 f7       	brpl	.-8      	; 0x1d0 <_ZN7atmicro6Device12setDirectionENS_3PINEb+0x14>
 1d8:	cb 01       	movw	r24, r22
 1da:	84 2b       	or	r24, r20
 1dc:	3f c0       	rjmp	.+126    	; 0x25c <_ZN7atmicro6Device12setDirectionENS_3PINEb+0xa0>
 1de:	98 ef       	ldi	r25, 0xF8	; 248
 1e0:	98 0f       	add	r25, r24
 1e2:	98 30       	cpi	r25, 0x08	; 8
 1e4:	60 f4       	brcc	.+24     	; 0x1fe <_ZN7atmicro6Device12setDirectionENS_3PINEb+0x42>
 1e6:	47 b3       	in	r20, 0x17	; 23
 1e8:	21 e0       	ldi	r18, 0x01	; 1
 1ea:	30 e0       	ldi	r19, 0x00	; 0
 1ec:	b9 01       	movw	r22, r18
 1ee:	02 c0       	rjmp	.+4      	; 0x1f4 <_ZN7atmicro6Device12setDirectionENS_3PINEb+0x38>
 1f0:	66 0f       	add	r22, r22
 1f2:	77 1f       	adc	r23, r23
 1f4:	9a 95       	dec	r25
 1f6:	e2 f7       	brpl	.-8      	; 0x1f0 <_ZN7atmicro6Device12setDirectionENS_3PINEb+0x34>
 1f8:	cb 01       	movw	r24, r22
 1fa:	84 2b       	or	r24, r20
 1fc:	41 c0       	rjmp	.+130    	; 0x280 <_ZN7atmicro6Device12setDirectionENS_3PINEb+0xc4>
 1fe:	90 ef       	ldi	r25, 0xF0	; 240
 200:	98 0f       	add	r25, r24
 202:	98 30       	cpi	r25, 0x08	; 8
 204:	60 f4       	brcc	.+24     	; 0x21e <_ZN7atmicro6Device12setDirectionENS_3PINEb+0x62>
 206:	44 b3       	in	r20, 0x14	; 20
 208:	21 e0       	ldi	r18, 0x01	; 1
 20a:	30 e0       	ldi	r19, 0x00	; 0
 20c:	b9 01       	movw	r22, r18
 20e:	02 c0       	rjmp	.+4      	; 0x214 <_ZN7atmicro6Device12setDirectionENS_3PINEb+0x58>
 210:	66 0f       	add	r22, r22
 212:	77 1f       	adc	r23, r23
 214:	9a 95       	dec	r25
 216:	e2 f7       	brpl	.-8      	; 0x210 <_ZN7atmicro6Device12setDirectionENS_3PINEb+0x54>
 218:	cb 01       	movw	r24, r22
 21a:	84 2b       	or	r24, r20
 21c:	43 c0       	rjmp	.+134    	; 0x2a4 <_ZN7atmicro6Device12setDirectionENS_3PINEb+0xe8>
 21e:	98 ee       	ldi	r25, 0xE8	; 232
 220:	98 0f       	add	r25, r24
 222:	98 30       	cpi	r25, 0x08	; 8
 224:	08 f0       	brcs	.+2      	; 0x228 <_ZN7atmicro6Device12setDirectionENS_3PINEb+0x6c>
 226:	51 c0       	rjmp	.+162    	; 0x2ca <_ZN7atmicro6Device12setDirectionENS_3PINEb+0x10e>
 228:	41 b3       	in	r20, 0x11	; 17
 22a:	21 e0       	ldi	r18, 0x01	; 1
 22c:	30 e0       	ldi	r19, 0x00	; 0
 22e:	b9 01       	movw	r22, r18
 230:	02 c0       	rjmp	.+4      	; 0x236 <_ZN7atmicro6Device12setDirectionENS_3PINEb+0x7a>
 232:	66 0f       	add	r22, r22
 234:	77 1f       	adc	r23, r23
 236:	9a 95       	dec	r25
 238:	e2 f7       	brpl	.-8      	; 0x232 <_ZN7atmicro6Device12setDirectionENS_3PINEb+0x76>
 23a:	cb 01       	movw	r24, r22
 23c:	84 2b       	or	r24, r20
 23e:	44 c0       	rjmp	.+136    	; 0x2c8 <_ZN7atmicro6Device12setDirectionENS_3PINEb+0x10c>
 240:	88 30       	cpi	r24, 0x08	; 8
 242:	70 f4       	brcc	.+28     	; 0x260 <_ZN7atmicro6Device12setDirectionENS_3PINEb+0xa4>
 244:	4a b3       	in	r20, 0x1a	; 26
 246:	21 e0       	ldi	r18, 0x01	; 1
 248:	30 e0       	ldi	r19, 0x00	; 0
 24a:	b9 01       	movw	r22, r18
 24c:	02 c0       	rjmp	.+4      	; 0x252 <_ZN7atmicro6Device12setDirectionENS_3PINEb+0x96>
 24e:	66 0f       	add	r22, r22
 250:	77 1f       	adc	r23, r23
 252:	8a 95       	dec	r24
 254:	e2 f7       	brpl	.-8      	; 0x24e <_ZN7atmicro6Device12setDirectionENS_3PINEb+0x92>
 256:	cb 01       	movw	r24, r22
 258:	80 95       	com	r24
 25a:	84 23       	and	r24, r20
 25c:	8a bb       	out	0x1a, r24	; 26
 25e:	08 95       	ret
 260:	98 ef       	ldi	r25, 0xF8	; 248
 262:	98 0f       	add	r25, r24
 264:	98 30       	cpi	r25, 0x08	; 8
 266:	70 f4       	brcc	.+28     	; 0x284 <_ZN7atmicro6Device12setDirectionENS_3PINEb+0xc8>
 268:	47 b3       	in	r20, 0x17	; 23
 26a:	21 e0       	ldi	r18, 0x01	; 1
 26c:	30 e0       	ldi	r19, 0x00	; 0
 26e:	b9 01       	movw	r22, r18
 270:	02 c0       	rjmp	.+4      	; 0x276 <_ZN7atmicro6Device12setDirectionENS_3PINEb+0xba>
 272:	66 0f       	add	r22, r22
 274:	77 1f       	adc	r23, r23
 276:	9a 95       	dec	r25
 278:	e2 f7       	brpl	.-8      	; 0x272 <_ZN7atmicro6Device12setDirectionENS_3PINEb+0xb6>
 27a:	cb 01       	movw	r24, r22
 27c:	80 95       	com	r24
 27e:	84 23       	and	r24, r20
 280:	87 bb       	out	0x17, r24	; 23
 282:	08 95       	ret
 284:	90 ef       	ldi	r25, 0xF0	; 240
 286:	98 0f       	add	r25, r24
 288:	98 30       	cpi	r25, 0x08	; 8
 28a:	70 f4       	brcc	.+28     	; 0x2a8 <_ZN7atmicro6Device12setDirectionENS_3PINEb+0xec>
 28c:	44 b3       	in	r20, 0x14	; 20
 28e:	21 e0       	ldi	r18, 0x01	; 1
 290:	30 e0       	ldi	r19, 0x00	; 0
 292:	b9 01       	movw	r22, r18
 294:	02 c0       	rjmp	.+4      	; 0x29a <_ZN7atmicro6Device12setDirectionENS_3PINEb+0xde>
 296:	66 0f       	add	r22, r22
 298:	77 1f       	adc	r23, r23
 29a:	9a 95       	dec	r25
 29c:	e2 f7       	brpl	.-8      	; 0x296 <_ZN7atmicro6Device12setDirectionENS_3PINEb+0xda>
 29e:	cb 01       	movw	r24, r22
 2a0:	80 95       	com	r24
 2a2:	84 23       	and	r24, r20
 2a4:	84 bb       	out	0x14, r24	; 20
 2a6:	08 95       	ret
 2a8:	98 ee       	ldi	r25, 0xE8	; 232
 2aa:	98 0f       	add	r25, r24
 2ac:	98 30       	cpi	r25, 0x08	; 8
 2ae:	68 f4       	brcc	.+26     	; 0x2ca <_ZN7atmicro6Device12setDirectionENS_3PINEb+0x10e>
 2b0:	41 b3       	in	r20, 0x11	; 17
 2b2:	21 e0       	ldi	r18, 0x01	; 1
 2b4:	30 e0       	ldi	r19, 0x00	; 0
 2b6:	b9 01       	movw	r22, r18
 2b8:	02 c0       	rjmp	.+4      	; 0x2be <_ZN7atmicro6Device12setDirectionENS_3PINEb+0x102>
 2ba:	66 0f       	add	r22, r22
 2bc:	77 1f       	adc	r23, r23
 2be:	9a 95       	dec	r25
 2c0:	e2 f7       	brpl	.-8      	; 0x2ba <_ZN7atmicro6Device12setDirectionENS_3PINEb+0xfe>
 2c2:	cb 01       	movw	r24, r22
 2c4:	80 95       	com	r24
 2c6:	84 23       	and	r24, r20
 2c8:	81 bb       	out	0x11, r24	; 17
 2ca:	08 95       	ret

000002cc <_ZN7atmicro6Device9getStatusENS_3PINE>:
 2cc:	48 2f       	mov	r20, r24
 2ce:	88 30       	cpi	r24, 0x08	; 8
 2d0:	20 f4       	brcc	.+8      	; 0x2da <_ZN7atmicro6Device9getStatusENS_3PINE+0xe>
 2d2:	99 b3       	in	r25, 0x19	; 25
 2d4:	89 2f       	mov	r24, r25
 2d6:	90 e0       	ldi	r25, 0x00	; 0
 2d8:	14 c0       	rjmp	.+40     	; 0x302 <_ZN7atmicro6Device9getStatusENS_3PINE+0x36>
 2da:	88 ef       	ldi	r24, 0xF8	; 248
 2dc:	84 0f       	add	r24, r20
 2de:	88 30       	cpi	r24, 0x08	; 8
 2e0:	10 f4       	brcc	.+4      	; 0x2e6 <_ZN7atmicro6Device9getStatusENS_3PINE+0x1a>
 2e2:	26 b3       	in	r18, 0x16	; 22
 2e4:	0b c0       	rjmp	.+22     	; 0x2fc <_ZN7atmicro6Device9getStatusENS_3PINE+0x30>
 2e6:	80 ef       	ldi	r24, 0xF0	; 240
 2e8:	84 0f       	add	r24, r20
 2ea:	88 30       	cpi	r24, 0x08	; 8
 2ec:	10 f4       	brcc	.+4      	; 0x2f2 <_ZN7atmicro6Device9getStatusENS_3PINE+0x26>
 2ee:	23 b3       	in	r18, 0x13	; 19
 2f0:	05 c0       	rjmp	.+10     	; 0x2fc <_ZN7atmicro6Device9getStatusENS_3PINE+0x30>
 2f2:	88 ee       	ldi	r24, 0xE8	; 232
 2f4:	84 0f       	add	r24, r20
 2f6:	88 30       	cpi	r24, 0x08	; 8
 2f8:	58 f4       	brcc	.+22     	; 0x310 <_ZN7atmicro6Device9getStatusENS_3PINE+0x44>
 2fa:	20 b3       	in	r18, 0x10	; 16
 2fc:	30 e0       	ldi	r19, 0x00	; 0
 2fe:	48 2f       	mov	r20, r24
 300:	c9 01       	movw	r24, r18
 302:	02 c0       	rjmp	.+4      	; 0x308 <_ZN7atmicro6Device9getStatusENS_3PINE+0x3c>
 304:	95 95       	asr	r25
 306:	87 95       	ror	r24
 308:	4a 95       	dec	r20
 30a:	e2 f7       	brpl	.-8      	; 0x304 <_ZN7atmicro6Device9getStatusENS_3PINE+0x38>
 30c:	81 70       	andi	r24, 0x01	; 1
 30e:	08 95       	ret
 310:	80 e0       	ldi	r24, 0x00	; 0
 312:	08 95       	ret

00000314 <_ZN7atmicro6Device9setStatusENS_4PORTEi>:
 314:	88 30       	cpi	r24, 0x08	; 8
 316:	59 f0       	breq	.+22     	; 0x32e <_ZN7atmicro6Device9setStatusENS_4PORTEi+0x1a>
 318:	18 f4       	brcc	.+6      	; 0x320 <_ZN7atmicro6Device9setStatusENS_4PORTEi+0xc>
 31a:	88 23       	and	r24, r24
 31c:	31 f0       	breq	.+12     	; 0x32a <_ZN7atmicro6Device9setStatusENS_4PORTEi+0x16>
 31e:	08 95       	ret
 320:	80 31       	cpi	r24, 0x10	; 16
 322:	39 f0       	breq	.+14     	; 0x332 <_ZN7atmicro6Device9setStatusENS_4PORTEi+0x1e>
 324:	88 31       	cpi	r24, 0x18	; 24
 326:	39 f0       	breq	.+14     	; 0x336 <_ZN7atmicro6Device9setStatusENS_4PORTEi+0x22>
 328:	08 95       	ret
 32a:	6b bb       	out	0x1b, r22	; 27
 32c:	08 95       	ret
 32e:	68 bb       	out	0x18, r22	; 24
 330:	08 95       	ret
 332:	65 bb       	out	0x15, r22	; 21
 334:	08 95       	ret
 336:	62 bb       	out	0x12, r22	; 18
 338:	08 95       	ret

0000033a <_ZN7atmicro6Device12setDirectionENS_4PORTEi>:
 33a:	88 30       	cpi	r24, 0x08	; 8
 33c:	59 f0       	breq	.+22     	; 0x354 <_ZN7atmicro6Device12setDirectionENS_4PORTEi+0x1a>
 33e:	18 f4       	brcc	.+6      	; 0x346 <_ZN7atmicro6Device12setDirectionENS_4PORTEi+0xc>
 340:	88 23       	and	r24, r24
 342:	31 f0       	breq	.+12     	; 0x350 <_ZN7atmicro6Device12setDirectionENS_4PORTEi+0x16>
 344:	08 95       	ret
 346:	80 31       	cpi	r24, 0x10	; 16
 348:	39 f0       	breq	.+14     	; 0x358 <_ZN7atmicro6Device12setDirectionENS_4PORTEi+0x1e>
 34a:	88 31       	cpi	r24, 0x18	; 24
 34c:	39 f0       	breq	.+14     	; 0x35c <_ZN7atmicro6Device12setDirectionENS_4PORTEi+0x22>
 34e:	08 95       	ret
 350:	6a bb       	out	0x1a, r22	; 26
 352:	08 95       	ret
 354:	67 bb       	out	0x17, r22	; 23
 356:	08 95       	ret
 358:	64 bb       	out	0x14, r22	; 20
 35a:	08 95       	ret
 35c:	61 bb       	out	0x11, r22	; 17
 35e:	08 95       	ret

00000360 <_ZN7atmicro6Device9getStatusENS_4PORTENS_8POSITIONE>:
 360:	88 30       	cpi	r24, 0x08	; 8
 362:	59 f0       	breq	.+22     	; 0x37a <_ZN7atmicro6Device9getStatusENS_4PORTENS_8POSITIONE+0x1a>
 364:	20 f4       	brcc	.+8      	; 0x36e <_ZN7atmicro6Device9getStatusENS_4PORTENS_8POSITIONE+0xe>
 366:	81 11       	cpse	r24, r1
 368:	13 c0       	rjmp	.+38     	; 0x390 <_ZN7atmicro6Device9getStatusENS_4PORTENS_8POSITIONE+0x30>
 36a:	89 b3       	in	r24, 0x19	; 25
 36c:	09 c0       	rjmp	.+18     	; 0x380 <_ZN7atmicro6Device9getStatusENS_4PORTENS_8POSITIONE+0x20>
 36e:	80 31       	cpi	r24, 0x10	; 16
 370:	31 f0       	breq	.+12     	; 0x37e <_ZN7atmicro6Device9getStatusENS_4PORTENS_8POSITIONE+0x1e>
 372:	88 31       	cpi	r24, 0x18	; 24
 374:	69 f4       	brne	.+26     	; 0x390 <_ZN7atmicro6Device9getStatusENS_4PORTENS_8POSITIONE+0x30>
 376:	80 b3       	in	r24, 0x10	; 16
 378:	03 c0       	rjmp	.+6      	; 0x380 <_ZN7atmicro6Device9getStatusENS_4PORTENS_8POSITIONE+0x20>
 37a:	86 b3       	in	r24, 0x16	; 22
 37c:	01 c0       	rjmp	.+2      	; 0x380 <_ZN7atmicro6Device9getStatusENS_4PORTENS_8POSITIONE+0x20>
 37e:	83 b3       	in	r24, 0x13	; 19
 380:	90 e0       	ldi	r25, 0x00	; 0
 382:	02 c0       	rjmp	.+4      	; 0x388 <_ZN7atmicro6Device9getStatusENS_4PORTENS_8POSITIONE+0x28>
 384:	95 95       	asr	r25
 386:	87 95       	ror	r24
 388:	6a 95       	dec	r22
 38a:	e2 f7       	brpl	.-8      	; 0x384 <_ZN7atmicro6Device9getStatusENS_4PORTENS_8POSITIONE+0x24>
 38c:	81 70       	andi	r24, 0x01	; 1
 38e:	08 95       	ret
 390:	80 e0       	ldi	r24, 0x00	; 0
 392:	08 95       	ret

00000394 <_ZN7atmicro6Keypad10initializeEv>:
 394:	cf 93       	push	r28
 396:	df 93       	push	r29
 398:	ec 01       	movw	r28, r24
 39a:	6f e0       	ldi	r22, 0x0F	; 15
 39c:	70 e0       	ldi	r23, 0x00	; 0
 39e:	8a 81       	ldd	r24, Y+2	; 0x02
 3a0:	0e 94 9d 01 	call	0x33a	; 0x33a <_ZN7atmicro6Device12setDirectionENS_4PORTEi>
 3a4:	6f ef       	ldi	r22, 0xFF	; 255
 3a6:	70 e0       	ldi	r23, 0x00	; 0
 3a8:	8a 81       	ldd	r24, Y+2	; 0x02
 3aa:	df 91       	pop	r29
 3ac:	cf 91       	pop	r28
 3ae:	0c 94 8a 01 	jmp	0x314	; 0x314 <_ZN7atmicro6Device9setStatusENS_4PORTEi>

000003b2 <_ZN7atmicro6KeypadC1ENS_4PORTE>:
 3b2:	2c e7       	ldi	r18, 0x7C	; 124
 3b4:	30 e0       	ldi	r19, 0x00	; 0
 3b6:	fc 01       	movw	r30, r24
 3b8:	31 83       	std	Z+1, r19	; 0x01
 3ba:	20 83       	st	Z, r18
 3bc:	62 83       	std	Z+2, r22	; 0x02
 3be:	0c 94 ca 01 	jmp	0x394	; 0x394 <_ZN7atmicro6Keypad10initializeEv>

000003c2 <_ZN7atmicro6Keypad13switchPressedENS_3PINE>:
 3c2:	4f 92       	push	r4
 3c4:	5f 92       	push	r5
 3c6:	6f 92       	push	r6
 3c8:	7f 92       	push	r7
 3ca:	8f 92       	push	r8
 3cc:	9f 92       	push	r9
 3ce:	af 92       	push	r10
 3d0:	bf 92       	push	r11
 3d2:	cf 92       	push	r12
 3d4:	df 92       	push	r13
 3d6:	ef 92       	push	r14
 3d8:	ff 92       	push	r15
 3da:	1f 93       	push	r17
 3dc:	cf 93       	push	r28
 3de:	df 93       	push	r29
 3e0:	18 2f       	mov	r17, r24
 3e2:	c4 e6       	ldi	r28, 0x64	; 100
 3e4:	d0 e0       	ldi	r29, 0x00	; 0
 3e6:	81 2c       	mov	r8, r1
 3e8:	91 2c       	mov	r9, r1
 3ea:	54 01       	movw	r10, r8
 3ec:	75 01       	movw	r14, r10
 3ee:	64 01       	movw	r12, r8
 3f0:	81 2f       	mov	r24, r17
 3f2:	0e 94 66 01 	call	0x2cc	; 0x2cc <_ZN7atmicro6Device9getStatusENS_3PINE>
 3f6:	81 11       	cpse	r24, r1
 3f8:	0a c0       	rjmp	.+20     	; 0x40e <_ZN7atmicro6Keypad13switchPressedENS_3PINE+0x4c>
 3fa:	20 e0       	ldi	r18, 0x00	; 0
 3fc:	30 e0       	ldi	r19, 0x00	; 0
 3fe:	40 e8       	ldi	r20, 0x80	; 128
 400:	5f e3       	ldi	r21, 0x3F	; 63
 402:	c5 01       	movw	r24, r10
 404:	b4 01       	movw	r22, r8
 406:	0e 94 37 06 	call	0xc6e	; 0xc6e <__addsf3>
 40a:	4b 01       	movw	r8, r22
 40c:	5c 01       	movw	r10, r24
 40e:	20 e0       	ldi	r18, 0x00	; 0
 410:	30 e0       	ldi	r19, 0x00	; 0
 412:	40 e4       	ldi	r20, 0x40	; 64
 414:	50 e4       	ldi	r21, 0x40	; 64
 416:	c7 01       	movw	r24, r14
 418:	b6 01       	movw	r22, r12
 41a:	0e 94 8f 07 	call	0xf1e	; 0xf1e <__gesf2>
 41e:	18 16       	cp	r1, r24
 420:	04 f5       	brge	.+64     	; 0x462 <_ZN7atmicro6Keypad13switchPressedENS_3PINE+0xa0>
 422:	a7 01       	movw	r20, r14
 424:	96 01       	movw	r18, r12
 426:	c5 01       	movw	r24, r10
 428:	b4 01       	movw	r22, r8
 42a:	0e 94 a8 06 	call	0xd50	; 0xd50 <__divsf3>
 42e:	2b 01       	movw	r4, r22
 430:	3c 01       	movw	r6, r24
 432:	23 e3       	ldi	r18, 0x33	; 51
 434:	33 e3       	ldi	r19, 0x33	; 51
 436:	43 e3       	ldi	r20, 0x33	; 51
 438:	5f e3       	ldi	r21, 0x3F	; 63
 43a:	0e 94 8f 07 	call	0xf1e	; 0xf1e <__gesf2>
 43e:	87 ff       	sbrs	r24, 7
 440:	3a c0       	rjmp	.+116    	; 0x4b6 <_ZN7atmicro6Keypad13switchPressedENS_3PINE+0xf4>
 442:	a3 01       	movw	r20, r6
 444:	92 01       	movw	r18, r4
 446:	60 e0       	ldi	r22, 0x00	; 0
 448:	70 e0       	ldi	r23, 0x00	; 0
 44a:	80 e8       	ldi	r24, 0x80	; 128
 44c:	9f e3       	ldi	r25, 0x3F	; 63
 44e:	0e 94 36 06 	call	0xc6c	; 0xc6c <__subsf3>
 452:	23 e3       	ldi	r18, 0x33	; 51
 454:	33 e3       	ldi	r19, 0x33	; 51
 456:	43 e3       	ldi	r20, 0x33	; 51
 458:	5f e3       	ldi	r21, 0x3F	; 63
 45a:	0e 94 8f 07 	call	0xf1e	; 0xf1e <__gesf2>
 45e:	87 ff       	sbrs	r24, 7
 460:	2c c0       	rjmp	.+88     	; 0x4ba <_ZN7atmicro6Keypad13switchPressedENS_3PINE+0xf8>
 462:	20 e0       	ldi	r18, 0x00	; 0
 464:	30 e0       	ldi	r19, 0x00	; 0
 466:	46 ec       	ldi	r20, 0xC6	; 198
 468:	52 e4       	ldi	r21, 0x42	; 66
 46a:	c7 01       	movw	r24, r14
 46c:	b6 01       	movw	r22, r12
 46e:	0e 94 a3 06 	call	0xd46	; 0xd46 <__cmpsf2>
 472:	81 11       	cpse	r24, r1
 474:	12 c0       	rjmp	.+36     	; 0x49a <_ZN7atmicro6Keypad13switchPressedENS_3PINE+0xd8>
 476:	20 e0       	ldi	r18, 0x00	; 0
 478:	30 e0       	ldi	r19, 0x00	; 0
 47a:	46 ec       	ldi	r20, 0xC6	; 198
 47c:	52 e4       	ldi	r21, 0x42	; 66
 47e:	c5 01       	movw	r24, r10
 480:	b4 01       	movw	r22, r8
 482:	0e 94 a8 06 	call	0xd50	; 0xd50 <__divsf3>
 486:	c1 e0       	ldi	r28, 0x01	; 1
 488:	20 e0       	ldi	r18, 0x00	; 0
 48a:	30 e0       	ldi	r19, 0x00	; 0
 48c:	40 e0       	ldi	r20, 0x00	; 0
 48e:	5f e3       	ldi	r21, 0x3F	; 63
 490:	0e 94 8f 07 	call	0xf1e	; 0xf1e <__gesf2>
 494:	18 16       	cp	r1, r24
 496:	94 f0       	brlt	.+36     	; 0x4bc <_ZN7atmicro6Keypad13switchPressedENS_3PINE+0xfa>
 498:	10 c0       	rjmp	.+32     	; 0x4ba <_ZN7atmicro6Keypad13switchPressedENS_3PINE+0xf8>
 49a:	20 e0       	ldi	r18, 0x00	; 0
 49c:	30 e0       	ldi	r19, 0x00	; 0
 49e:	40 e8       	ldi	r20, 0x80	; 128
 4a0:	5f e3       	ldi	r21, 0x3F	; 63
 4a2:	c7 01       	movw	r24, r14
 4a4:	b6 01       	movw	r22, r12
 4a6:	0e 94 37 06 	call	0xc6e	; 0xc6e <__addsf3>
 4aa:	6b 01       	movw	r12, r22
 4ac:	7c 01       	movw	r14, r24
 4ae:	21 97       	sbiw	r28, 0x01	; 1
 4b0:	09 f0       	breq	.+2      	; 0x4b4 <_ZN7atmicro6Keypad13switchPressedENS_3PINE+0xf2>
 4b2:	9e cf       	rjmp	.-196    	; 0x3f0 <_ZN7atmicro6Keypad13switchPressedENS_3PINE+0x2e>
 4b4:	02 c0       	rjmp	.+4      	; 0x4ba <_ZN7atmicro6Keypad13switchPressedENS_3PINE+0xf8>
 4b6:	c1 e0       	ldi	r28, 0x01	; 1
 4b8:	01 c0       	rjmp	.+2      	; 0x4bc <_ZN7atmicro6Keypad13switchPressedENS_3PINE+0xfa>
 4ba:	c0 e0       	ldi	r28, 0x00	; 0
 4bc:	8c 2f       	mov	r24, r28
 4be:	df 91       	pop	r29
 4c0:	cf 91       	pop	r28
 4c2:	1f 91       	pop	r17
 4c4:	ff 90       	pop	r15
 4c6:	ef 90       	pop	r14
 4c8:	df 90       	pop	r13
 4ca:	cf 90       	pop	r12
 4cc:	bf 90       	pop	r11
 4ce:	af 90       	pop	r10
 4d0:	9f 90       	pop	r9
 4d2:	8f 90       	pop	r8
 4d4:	7f 90       	pop	r7
 4d6:	6f 90       	pop	r6
 4d8:	5f 90       	pop	r5
 4da:	4f 90       	pop	r4
 4dc:	08 95       	ret

000004de <_ZN7atmicro6Keypad9isPressedEv>:
 4de:	bf 92       	push	r11
 4e0:	cf 92       	push	r12
 4e2:	df 92       	push	r13
 4e4:	ef 92       	push	r14
 4e6:	ff 92       	push	r15
 4e8:	0f 93       	push	r16
 4ea:	1f 93       	push	r17
 4ec:	cf 93       	push	r28
 4ee:	df 93       	push	r29
 4f0:	b8 2e       	mov	r11, r24
 4f2:	d9 2f       	mov	r29, r25
 4f4:	6b 01       	movw	r12, r22
 4f6:	08 2f       	mov	r16, r24
 4f8:	19 2f       	mov	r17, r25
 4fa:	c0 e0       	ldi	r28, 0x00	; 0
 4fc:	f6 01       	movw	r30, r12
 4fe:	82 81       	ldd	r24, Z+2	; 0x02
 500:	60 e0       	ldi	r22, 0x00	; 0
 502:	8c 0f       	add	r24, r28
 504:	0e 94 56 00 	call	0xac	; 0xac <_ZN7atmicro6Device9setStatusENS_3PINEb>
 508:	e1 2c       	mov	r14, r1
 50a:	f1 2c       	mov	r15, r1
 50c:	f6 01       	movw	r30, r12
 50e:	22 81       	ldd	r18, Z+2	; 0x02
 510:	84 e0       	ldi	r24, 0x04	; 4
 512:	82 0f       	add	r24, r18
 514:	8e 0d       	add	r24, r14
 516:	0e 94 e1 01 	call	0x3c2	; 0x3c2 <_ZN7atmicro6Keypad13switchPressedENS_3PINE>
 51a:	f8 01       	movw	r30, r16
 51c:	ee 0d       	add	r30, r14
 51e:	ff 1d       	adc	r31, r15
 520:	80 83       	st	Z, r24
 522:	ff ef       	ldi	r31, 0xFF	; 255
 524:	ef 1a       	sub	r14, r31
 526:	ff 0a       	sbc	r15, r31
 528:	84 e0       	ldi	r24, 0x04	; 4
 52a:	e8 16       	cp	r14, r24
 52c:	f1 04       	cpc	r15, r1
 52e:	71 f7       	brne	.-36     	; 0x50c <_ZN7atmicro6Keypad9isPressedEv+0x2e>
 530:	f6 01       	movw	r30, r12
 532:	82 81       	ldd	r24, Z+2	; 0x02
 534:	61 e0       	ldi	r22, 0x01	; 1
 536:	8c 0f       	add	r24, r28
 538:	0e 94 56 00 	call	0xac	; 0xac <_ZN7atmicro6Device9setStatusENS_3PINEb>
 53c:	cf 5f       	subi	r28, 0xFF	; 255
 53e:	0c 5f       	subi	r16, 0xFC	; 252
 540:	1f 4f       	sbci	r17, 0xFF	; 255
 542:	c4 30       	cpi	r28, 0x04	; 4
 544:	d9 f6       	brne	.-74     	; 0x4fc <_ZN7atmicro6Keypad9isPressedEv+0x1e>
 546:	8b 2d       	mov	r24, r11
 548:	9d 2f       	mov	r25, r29
 54a:	df 91       	pop	r29
 54c:	cf 91       	pop	r28
 54e:	1f 91       	pop	r17
 550:	0f 91       	pop	r16
 552:	ff 90       	pop	r15
 554:	ef 90       	pop	r14
 556:	df 90       	pop	r13
 558:	cf 90       	pop	r12
 55a:	bf 90       	pop	r11
 55c:	08 95       	ret

0000055e <_ZN7atmicro15ParallelTextLCD13action_enableEv>:
 55e:	cf 93       	push	r28
 560:	df 93       	push	r29
 562:	ec 01       	movw	r28, r24
 564:	61 e0       	ldi	r22, 0x01	; 1
 566:	8b 81       	ldd	r24, Y+3	; 0x03
 568:	0e 94 56 00 	call	0xac	; 0xac <_ZN7atmicro6Device9setStatusENS_3PINEb>
 56c:	00 00       	nop
 56e:	00 00       	nop
 570:	60 e0       	ldi	r22, 0x00	; 0
 572:	8b 81       	ldd	r24, Y+3	; 0x03
 574:	df 91       	pop	r29
 576:	cf 91       	pop	r28
 578:	0c 94 56 00 	jmp	0xac	; 0xac <_ZN7atmicro6Device9setStatusENS_3PINEb>

0000057c <_ZN7atmicro15ParallelTextLCD9wait_busyEv>:
 57c:	cf 93       	push	r28
 57e:	df 93       	push	r29
 580:	ec 01       	movw	r28, r24
 582:	60 e0       	ldi	r22, 0x00	; 0
 584:	70 e0       	ldi	r23, 0x00	; 0
 586:	8a 81       	ldd	r24, Y+2	; 0x02
 588:	0e 94 9d 01 	call	0x33a	; 0x33a <_ZN7atmicro6Device12setDirectionENS_4PORTEi>
 58c:	61 e0       	ldi	r22, 0x01	; 1
 58e:	8c 81       	ldd	r24, Y+4	; 0x04
 590:	0e 94 56 00 	call	0xac	; 0xac <_ZN7atmicro6Device9setStatusENS_3PINEb>
 594:	60 e0       	ldi	r22, 0x00	; 0
 596:	8d 81       	ldd	r24, Y+5	; 0x05
 598:	0e 94 56 00 	call	0xac	; 0xac <_ZN7atmicro6Device9setStatusENS_3PINEb>
 59c:	67 e0       	ldi	r22, 0x07	; 7
 59e:	8a 81       	ldd	r24, Y+2	; 0x02
 5a0:	0e 94 b0 01 	call	0x360	; 0x360 <_ZN7atmicro6Device9getStatusENS_4PORTENS_8POSITIONE>
 5a4:	81 11       	cpse	r24, r1
 5a6:	04 c0       	rjmp	.+8      	; 0x5b0 <_ZN7atmicro15ParallelTextLCD9wait_busyEv+0x34>
 5a8:	ce 01       	movw	r24, r28
 5aa:	0e 94 af 02 	call	0x55e	; 0x55e <_ZN7atmicro15ParallelTextLCD13action_enableEv>
 5ae:	f6 cf       	rjmp	.-20     	; 0x59c <_ZN7atmicro15ParallelTextLCD9wait_busyEv+0x20>
 5b0:	6f ef       	ldi	r22, 0xFF	; 255
 5b2:	70 e0       	ldi	r23, 0x00	; 0
 5b4:	8a 81       	ldd	r24, Y+2	; 0x02
 5b6:	df 91       	pop	r29
 5b8:	cf 91       	pop	r28
 5ba:	0c 94 9d 01 	jmp	0x33a	; 0x33a <_ZN7atmicro6Device12setDirectionENS_4PORTEi>

000005be <_ZN7atmicro15ParallelTextLCD7commandEh>:
 5be:	0f 93       	push	r16
 5c0:	1f 93       	push	r17
 5c2:	cf 93       	push	r28
 5c4:	df 93       	push	r29
 5c6:	1f 92       	push	r1
 5c8:	cd b7       	in	r28, 0x3d	; 61
 5ca:	de b7       	in	r29, 0x3e	; 62
 5cc:	8c 01       	movw	r16, r24
 5ce:	69 83       	std	Y+1, r22	; 0x01
 5d0:	0e 94 be 02 	call	0x57c	; 0x57c <_ZN7atmicro15ParallelTextLCD9wait_busyEv>
 5d4:	69 81       	ldd	r22, Y+1	; 0x01
 5d6:	70 e0       	ldi	r23, 0x00	; 0
 5d8:	f8 01       	movw	r30, r16
 5da:	82 81       	ldd	r24, Z+2	; 0x02
 5dc:	0e 94 8a 01 	call	0x314	; 0x314 <_ZN7atmicro6Device9setStatusENS_4PORTEi>
 5e0:	60 e0       	ldi	r22, 0x00	; 0
 5e2:	f8 01       	movw	r30, r16
 5e4:	84 81       	ldd	r24, Z+4	; 0x04
 5e6:	0e 94 56 00 	call	0xac	; 0xac <_ZN7atmicro6Device9setStatusENS_3PINEb>
 5ea:	60 e0       	ldi	r22, 0x00	; 0
 5ec:	f8 01       	movw	r30, r16
 5ee:	85 81       	ldd	r24, Z+5	; 0x05
 5f0:	0e 94 56 00 	call	0xac	; 0xac <_ZN7atmicro6Device9setStatusENS_3PINEb>
 5f4:	c8 01       	movw	r24, r16
 5f6:	0e 94 af 02 	call	0x55e	; 0x55e <_ZN7atmicro15ParallelTextLCD13action_enableEv>
 5fa:	60 e0       	ldi	r22, 0x00	; 0
 5fc:	70 e0       	ldi	r23, 0x00	; 0
 5fe:	f8 01       	movw	r30, r16
 600:	82 81       	ldd	r24, Z+2	; 0x02
 602:	0f 90       	pop	r0
 604:	df 91       	pop	r29
 606:	cf 91       	pop	r28
 608:	1f 91       	pop	r17
 60a:	0f 91       	pop	r16
 60c:	0c 94 8a 01 	jmp	0x314	; 0x314 <_ZN7atmicro6Device9setStatusENS_4PORTEi>

00000610 <_ZN7atmicro15ParallelTextLCD10initializeEv>:
 610:	cf 93       	push	r28
 612:	df 93       	push	r29
 614:	ec 01       	movw	r28, r24
 616:	61 e0       	ldi	r22, 0x01	; 1
 618:	8d 81       	ldd	r24, Y+5	; 0x05
 61a:	0e 94 de 00 	call	0x1bc	; 0x1bc <_ZN7atmicro6Device12setDirectionENS_3PINEb>
 61e:	61 e0       	ldi	r22, 0x01	; 1
 620:	8c 81       	ldd	r24, Y+4	; 0x04
 622:	0e 94 de 00 	call	0x1bc	; 0x1bc <_ZN7atmicro6Device12setDirectionENS_3PINEb>
 626:	61 e0       	ldi	r22, 0x01	; 1
 628:	8b 81       	ldd	r24, Y+3	; 0x03
 62a:	0e 94 de 00 	call	0x1bc	; 0x1bc <_ZN7atmicro6Device12setDirectionENS_3PINEb>
 62e:	85 ea       	ldi	r24, 0xA5	; 165
 630:	9e e0       	ldi	r25, 0x0E	; 14
 632:	01 97       	sbiw	r24, 0x01	; 1
 634:	f1 f7       	brne	.-4      	; 0x632 <_ZN7atmicro15ParallelTextLCD10initializeEv+0x22>
 636:	00 c0       	rjmp	.+0      	; 0x638 <_ZN7atmicro15ParallelTextLCD10initializeEv+0x28>
 638:	00 00       	nop
 63a:	61 e0       	ldi	r22, 0x01	; 1
 63c:	ce 01       	movw	r24, r28
 63e:	0e 94 df 02 	call	0x5be	; 0x5be <_ZN7atmicro15ParallelTextLCD7commandEh>
 642:	83 ef       	ldi	r24, 0xF3	; 243
 644:	91 e0       	ldi	r25, 0x01	; 1
 646:	01 97       	sbiw	r24, 0x01	; 1
 648:	f1 f7       	brne	.-4      	; 0x646 <_ZN7atmicro15ParallelTextLCD10initializeEv+0x36>
 64a:	00 c0       	rjmp	.+0      	; 0x64c <_ZN7atmicro15ParallelTextLCD10initializeEv+0x3c>
 64c:	00 00       	nop
 64e:	68 e3       	ldi	r22, 0x38	; 56
 650:	ce 01       	movw	r24, r28
 652:	0e 94 df 02 	call	0x5be	; 0x5be <_ZN7atmicro15ParallelTextLCD7commandEh>
 656:	90 e1       	ldi	r25, 0x10	; 16
 658:	9a 95       	dec	r25
 65a:	f1 f7       	brne	.-4      	; 0x658 <_ZN7atmicro15ParallelTextLCD10initializeEv+0x48>
 65c:	00 c0       	rjmp	.+0      	; 0x65e <_ZN7atmicro15ParallelTextLCD10initializeEv+0x4e>
 65e:	6c e0       	ldi	r22, 0x0C	; 12
 660:	ce 01       	movw	r24, r28
 662:	0e 94 df 02 	call	0x5be	; 0x5be <_ZN7atmicro15ParallelTextLCD7commandEh>
 666:	80 e1       	ldi	r24, 0x10	; 16
 668:	8a 95       	dec	r24
 66a:	f1 f7       	brne	.-4      	; 0x668 <_ZN7atmicro15ParallelTextLCD10initializeEv+0x58>
 66c:	00 c0       	rjmp	.+0      	; 0x66e <_ZN7atmicro15ParallelTextLCD10initializeEv+0x5e>
 66e:	df 91       	pop	r29
 670:	cf 91       	pop	r28
 672:	08 95       	ret

00000674 <_ZN7atmicro15ParallelTextLCDC1ENS_4PORTENS_3PINES2_S2_>:
 674:	0f 93       	push	r16
 676:	cf 93       	push	r28
 678:	df 93       	push	r29
 67a:	ec 01       	movw	r28, r24
 67c:	82 e8       	ldi	r24, 0x82	; 130
 67e:	90 e0       	ldi	r25, 0x00	; 0
 680:	99 83       	std	Y+1, r25	; 0x01
 682:	88 83       	st	Y, r24
 684:	88 e0       	ldi	r24, 0x08	; 8
 686:	e0 e6       	ldi	r30, 0x60	; 96
 688:	f0 e0       	ldi	r31, 0x00	; 0
 68a:	de 01       	movw	r26, r28
 68c:	16 96       	adiw	r26, 0x06	; 6
 68e:	01 90       	ld	r0, Z+
 690:	0d 92       	st	X+, r0
 692:	8a 95       	dec	r24
 694:	e1 f7       	brne	.-8      	; 0x68e <_ZN7atmicro15ParallelTextLCDC1ENS_4PORTENS_3PINES2_S2_+0x1a>
 696:	6a 83       	std	Y+2, r22	; 0x02
 698:	4d 83       	std	Y+5, r20	; 0x05
 69a:	2c 83       	std	Y+4, r18	; 0x04
 69c:	0b 83       	std	Y+3, r16	; 0x03
 69e:	ce 01       	movw	r24, r28
 6a0:	df 91       	pop	r29
 6a2:	cf 91       	pop	r28
 6a4:	0f 91       	pop	r16
 6a6:	0c 94 08 03 	jmp	0x610	; 0x610 <_ZN7atmicro15ParallelTextLCD10initializeEv>

000006aa <_ZN7atmicro15ParallelTextLCD8positionEii>:
 6aa:	60 58       	subi	r22, 0x80	; 128
 6ac:	fa 01       	movw	r30, r20
 6ae:	33 96       	adiw	r30, 0x03	; 3
 6b0:	ee 0f       	add	r30, r30
 6b2:	ff 1f       	adc	r31, r31
 6b4:	e8 0f       	add	r30, r24
 6b6:	f9 1f       	adc	r31, r25
 6b8:	20 81       	ld	r18, Z
 6ba:	62 0f       	add	r22, r18
 6bc:	0c 94 df 02 	jmp	0x5be	; 0x5be <_ZN7atmicro15ParallelTextLCD7commandEh>

000006c0 <_ZN7atmicro15ParallelTextLCD5clearEv>:
 6c0:	61 e0       	ldi	r22, 0x01	; 1
 6c2:	0e 94 df 02 	call	0x5be	; 0x5be <_ZN7atmicro15ParallelTextLCD7commandEh>
 6c6:	83 ef       	ldi	r24, 0xF3	; 243
 6c8:	91 e0       	ldi	r25, 0x01	; 1
 6ca:	01 97       	sbiw	r24, 0x01	; 1
 6cc:	f1 f7       	brne	.-4      	; 0x6ca <_ZN7atmicro15ParallelTextLCD5clearEv+0xa>
 6ce:	00 c0       	rjmp	.+0      	; 0x6d0 <_ZN7atmicro15ParallelTextLCD5clearEv+0x10>
 6d0:	00 00       	nop
 6d2:	08 95       	ret

000006d4 <_ZN7atmicro15ParallelTextLCD9characterEh>:
 6d4:	0f 93       	push	r16
 6d6:	1f 93       	push	r17
 6d8:	cf 93       	push	r28
 6da:	df 93       	push	r29
 6dc:	1f 92       	push	r1
 6de:	cd b7       	in	r28, 0x3d	; 61
 6e0:	de b7       	in	r29, 0x3e	; 62
 6e2:	8c 01       	movw	r16, r24
 6e4:	69 83       	std	Y+1, r22	; 0x01
 6e6:	0e 94 be 02 	call	0x57c	; 0x57c <_ZN7atmicro15ParallelTextLCD9wait_busyEv>
 6ea:	69 81       	ldd	r22, Y+1	; 0x01
 6ec:	70 e0       	ldi	r23, 0x00	; 0
 6ee:	f8 01       	movw	r30, r16
 6f0:	82 81       	ldd	r24, Z+2	; 0x02
 6f2:	0e 94 8a 01 	call	0x314	; 0x314 <_ZN7atmicro6Device9setStatusENS_4PORTEi>
 6f6:	60 e0       	ldi	r22, 0x00	; 0
 6f8:	f8 01       	movw	r30, r16
 6fa:	84 81       	ldd	r24, Z+4	; 0x04
 6fc:	0e 94 56 00 	call	0xac	; 0xac <_ZN7atmicro6Device9setStatusENS_3PINEb>
 700:	61 e0       	ldi	r22, 0x01	; 1
 702:	f8 01       	movw	r30, r16
 704:	85 81       	ldd	r24, Z+5	; 0x05
 706:	0e 94 56 00 	call	0xac	; 0xac <_ZN7atmicro6Device9setStatusENS_3PINEb>
 70a:	c8 01       	movw	r24, r16
 70c:	0e 94 af 02 	call	0x55e	; 0x55e <_ZN7atmicro15ParallelTextLCD13action_enableEv>
 710:	60 e0       	ldi	r22, 0x00	; 0
 712:	70 e0       	ldi	r23, 0x00	; 0
 714:	f8 01       	movw	r30, r16
 716:	82 81       	ldd	r24, Z+2	; 0x02
 718:	0f 90       	pop	r0
 71a:	df 91       	pop	r29
 71c:	cf 91       	pop	r28
 71e:	1f 91       	pop	r17
 720:	0f 91       	pop	r16
 722:	0c 94 8a 01 	jmp	0x314	; 0x314 <_ZN7atmicro6Device9setStatusENS_4PORTEi>

00000726 <_ZN7atmicro15ParallelTextLCD6stringEPKc>:
 726:	0f 93       	push	r16
 728:	1f 93       	push	r17
 72a:	cf 93       	push	r28
 72c:	df 93       	push	r29
 72e:	8c 01       	movw	r16, r24
 730:	eb 01       	movw	r28, r22
 732:	69 91       	ld	r22, Y+
 734:	66 23       	and	r22, r22
 736:	21 f0       	breq	.+8      	; 0x740 <_ZN7atmicro15ParallelTextLCD6stringEPKc+0x1a>
 738:	c8 01       	movw	r24, r16
 73a:	0e 94 6a 03 	call	0x6d4	; 0x6d4 <_ZN7atmicro15ParallelTextLCD9characterEh>
 73e:	f9 cf       	rjmp	.-14     	; 0x732 <_ZN7atmicro15ParallelTextLCD6stringEPKc+0xc>
 740:	df 91       	pop	r29
 742:	cf 91       	pop	r28
 744:	1f 91       	pop	r17
 746:	0f 91       	pop	r16
 748:	08 95       	ret

0000074a <_ZN7atmicro15ParallelTextLCD6stringEiiPKc>:
 74a:	0f 93       	push	r16
 74c:	1f 93       	push	r17
 74e:	cf 93       	push	r28
 750:	df 93       	push	r29
 752:	ec 01       	movw	r28, r24
 754:	89 01       	movw	r16, r18
 756:	0e 94 55 03 	call	0x6aa	; 0x6aa <_ZN7atmicro15ParallelTextLCD8positionEii>
 75a:	b8 01       	movw	r22, r16
 75c:	ce 01       	movw	r24, r28
 75e:	df 91       	pop	r29
 760:	cf 91       	pop	r28
 762:	1f 91       	pop	r17
 764:	0f 91       	pop	r16
 766:	0c 94 93 03 	jmp	0x726	; 0x726 <_ZN7atmicro15ParallelTextLCD6stringEPKc>

0000076a <_ZN7atmicro7Istream5clearEv>:
 76a:	fc 01       	movw	r30, r24
 76c:	9c 01       	movw	r18, r24
 76e:	27 5e       	subi	r18, 0xE7	; 231
 770:	3f 4f       	sbci	r19, 0xFF	; 255
 772:	40 e2       	ldi	r20, 0x20	; 32
 774:	41 93       	st	Z+, r20
 776:	e2 17       	cp	r30, r18
 778:	f3 07       	cpc	r31, r19
 77a:	e1 f7       	brne	.-8      	; 0x774 <_ZN7atmicro7Istream5clearEv+0xa>
 77c:	fc 01       	movw	r30, r24
 77e:	10 82       	st	Z, r1
 780:	12 8e       	std	Z+26, r1	; 0x1a
 782:	11 8e       	std	Z+25, r1	; 0x19
 784:	08 95       	ret

00000786 <_ZN7atmicro7IstreamC1Ev>:
 786:	cf 93       	push	r28
 788:	df 93       	push	r29
 78a:	ec 01       	movw	r28, r24
 78c:	1a 8e       	std	Y+26, r1	; 0x1a
 78e:	19 8e       	std	Y+25, r1	; 0x19
 790:	80 e1       	ldi	r24, 0x10	; 16
 792:	e8 e6       	ldi	r30, 0x68	; 104
 794:	f0 e0       	ldi	r31, 0x00	; 0
 796:	de 01       	movw	r26, r28
 798:	5b 96       	adiw	r26, 0x1b	; 27
 79a:	01 90       	ld	r0, Z+
 79c:	0d 92       	st	X+, r0
 79e:	8a 95       	dec	r24
 7a0:	e1 f7       	brne	.-8      	; 0x79a <_ZN7atmicro7IstreamC1Ev+0x14>
 7a2:	ce 01       	movw	r24, r28
 7a4:	0e 94 b5 03 	call	0x76a	; 0x76a <_ZN7atmicro7Istream5clearEv>
 7a8:	84 e6       	ldi	r24, 0x64	; 100
 7aa:	90 e0       	ldi	r25, 0x00	; 0
 7ac:	9c a7       	std	Y+44, r25	; 0x2c
 7ae:	8b a7       	std	Y+43, r24	; 0x2b
 7b0:	df 91       	pop	r29
 7b2:	cf 91       	pop	r28
 7b4:	08 95       	ret

000007b6 <_ZN7atmicro7Istream4pushEc>:
 7b6:	fc 01       	movw	r30, r24
 7b8:	21 8d       	ldd	r18, Z+25	; 0x19
 7ba:	32 8d       	ldd	r19, Z+26	; 0x1a
 7bc:	29 31       	cpi	r18, 0x19	; 25
 7be:	31 05       	cpc	r19, r1
 7c0:	11 f4       	brne	.+4      	; 0x7c6 <_ZN7atmicro7Istream4pushEc+0x10>
 7c2:	0c 94 b5 03 	jmp	0x76a	; 0x76a <_ZN7atmicro7Istream5clearEv>
 7c6:	fc 01       	movw	r30, r24
 7c8:	e2 0f       	add	r30, r18
 7ca:	f3 1f       	adc	r31, r19
 7cc:	60 83       	st	Z, r22
 7ce:	2f 5f       	subi	r18, 0xFF	; 255
 7d0:	3f 4f       	sbci	r19, 0xFF	; 255
 7d2:	fc 01       	movw	r30, r24
 7d4:	32 8f       	std	Z+26, r19	; 0x1a
 7d6:	21 8f       	std	Z+25, r18	; 0x19
 7d8:	e2 0f       	add	r30, r18
 7da:	f3 1f       	adc	r31, r19
 7dc:	10 82       	st	Z, r1
 7de:	08 95       	ret

000007e0 <_ZN7atmicro7Istream6updateERNS_6KeypadE>:
 7e0:	af 92       	push	r10
 7e2:	bf 92       	push	r11
 7e4:	cf 92       	push	r12
 7e6:	df 92       	push	r13
 7e8:	ef 92       	push	r14
 7ea:	ff 92       	push	r15
 7ec:	0f 93       	push	r16
 7ee:	1f 93       	push	r17
 7f0:	cf 93       	push	r28
 7f2:	df 93       	push	r29
 7f4:	cd b7       	in	r28, 0x3d	; 61
 7f6:	de b7       	in	r29, 0x3e	; 62
 7f8:	60 97       	sbiw	r28, 0x10	; 16
 7fa:	0f b6       	in	r0, 0x3f	; 63
 7fc:	f8 94       	cli
 7fe:	de bf       	out	0x3e, r29	; 62
 800:	0f be       	out	0x3f, r0	; 63
 802:	cd bf       	out	0x3d, r28	; 61
 804:	8c 01       	movw	r16, r24
 806:	ce 01       	movw	r24, r28
 808:	01 96       	adiw	r24, 0x01	; 1
 80a:	0e 94 6f 02 	call	0x4de	; 0x4de <_ZN7atmicro6Keypad9isPressedEv>
 80e:	d8 01       	movw	r26, r16
 810:	9b 96       	adiw	r26, 0x2b	; 43
 812:	ec 91       	ld	r30, X
 814:	9b 97       	sbiw	r26, 0x2b	; 43
 816:	9c 96       	adiw	r26, 0x2c	; 44
 818:	4c 91       	ld	r20, X
 81a:	8e 2f       	mov	r24, r30
 81c:	94 2f       	mov	r25, r20
 81e:	64 e0       	ldi	r22, 0x04	; 4
 820:	70 e0       	ldi	r23, 0x00	; 0
 822:	0e 94 94 07 	call	0xf28	; 0xf28 <__divmodhi4>
 826:	2e 2f       	mov	r18, r30
 828:	34 2f       	mov	r19, r20
 82a:	37 ff       	sbrs	r19, 7
 82c:	02 c0       	rjmp	.+4      	; 0x832 <_ZN7atmicro7Istream6updateERNS_6KeypadE+0x52>
 82e:	2d 5f       	subi	r18, 0xFD	; 253
 830:	3f 4f       	sbci	r19, 0xFF	; 255
 832:	2c 7f       	andi	r18, 0xFC	; 252
 834:	28 0f       	add	r18, r24
 836:	39 1f       	adc	r19, r25
 838:	e1 e0       	ldi	r30, 0x01	; 1
 83a:	f0 e0       	ldi	r31, 0x00	; 0
 83c:	ec 0f       	add	r30, r28
 83e:	fd 1f       	adc	r31, r29
 840:	e2 0f       	add	r30, r18
 842:	f3 1f       	adc	r31, r19
 844:	80 81       	ld	r24, Z
 846:	81 11       	cpse	r24, r1
 848:	05 c0       	rjmp	.+10     	; 0x854 <_ZN7atmicro7Istream6updateERNS_6KeypadE+0x74>
 84a:	84 e6       	ldi	r24, 0x64	; 100
 84c:	90 e0       	ldi	r25, 0x00	; 0
 84e:	f8 01       	movw	r30, r16
 850:	94 a7       	std	Z+44, r25	; 0x2c
 852:	83 a7       	std	Z+43, r24	; 0x2b
 854:	c1 2c       	mov	r12, r1
 856:	d1 2c       	mov	r13, r1
 858:	a1 2c       	mov	r10, r1
 85a:	b1 2c       	mov	r11, r1
 85c:	75 01       	movw	r14, r10
 85e:	ec 0c       	add	r14, r12
 860:	fd 1c       	adc	r15, r13
 862:	e1 e0       	ldi	r30, 0x01	; 1
 864:	f0 e0       	ldi	r31, 0x00	; 0
 866:	ec 0f       	add	r30, r28
 868:	fd 1f       	adc	r31, r29
 86a:	ee 0d       	add	r30, r14
 86c:	ff 1d       	adc	r31, r15
 86e:	80 81       	ld	r24, Z
 870:	88 23       	and	r24, r24
 872:	41 f0       	breq	.+16     	; 0x884 <__stack+0x25>
 874:	d8 01       	movw	r26, r16
 876:	9b 96       	adiw	r26, 0x2b	; 43
 878:	8d 91       	ld	r24, X+
 87a:	9c 91       	ld	r25, X
 87c:	9c 97       	sbiw	r26, 0x2c	; 44
 87e:	8e 15       	cp	r24, r14
 880:	9f 05       	cpc	r25, r15
 882:	f9 f4       	brne	.+62     	; 0x8c2 <__stack+0x63>
 884:	bf ef       	ldi	r27, 0xFF	; 255
 886:	ab 1a       	sub	r10, r27
 888:	bb 0a       	sbc	r11, r27
 88a:	e4 e0       	ldi	r30, 0x04	; 4
 88c:	ae 16       	cp	r10, r30
 88e:	b1 04       	cpc	r11, r1
 890:	29 f7       	brne	.-54     	; 0x85c <_ZN7atmicro7Istream6updateERNS_6KeypadE+0x7c>
 892:	f4 e0       	ldi	r31, 0x04	; 4
 894:	cf 0e       	add	r12, r31
 896:	d1 1c       	adc	r13, r1
 898:	80 e1       	ldi	r24, 0x10	; 16
 89a:	c8 16       	cp	r12, r24
 89c:	d1 04       	cpc	r13, r1
 89e:	e1 f6       	brne	.-72     	; 0x858 <_ZN7atmicro7Istream6updateERNS_6KeypadE+0x78>
 8a0:	60 96       	adiw	r28, 0x10	; 16
 8a2:	0f b6       	in	r0, 0x3f	; 63
 8a4:	f8 94       	cli
 8a6:	de bf       	out	0x3e, r29	; 62
 8a8:	0f be       	out	0x3f, r0	; 63
 8aa:	cd bf       	out	0x3d, r28	; 61
 8ac:	df 91       	pop	r29
 8ae:	cf 91       	pop	r28
 8b0:	1f 91       	pop	r17
 8b2:	0f 91       	pop	r16
 8b4:	ff 90       	pop	r15
 8b6:	ef 90       	pop	r14
 8b8:	df 90       	pop	r13
 8ba:	cf 90       	pop	r12
 8bc:	bf 90       	pop	r11
 8be:	af 90       	pop	r10
 8c0:	08 95       	ret
 8c2:	f8 01       	movw	r30, r16
 8c4:	ee 0d       	add	r30, r14
 8c6:	ff 1d       	adc	r31, r15
 8c8:	63 8d       	ldd	r22, Z+27	; 0x1b
 8ca:	c8 01       	movw	r24, r16
 8cc:	0e 94 db 03 	call	0x7b6	; 0x7b6 <_ZN7atmicro7Istream4pushEc>
 8d0:	d8 01       	movw	r26, r16
 8d2:	9c 96       	adiw	r26, 0x2c	; 44
 8d4:	fc 92       	st	X, r15
 8d6:	ee 92       	st	-X, r14
 8d8:	9b 97       	sbiw	r26, 0x2b	; 43
 8da:	d4 cf       	rjmp	.-88     	; 0x884 <__stack+0x25>

000008dc <_Z6disarmRN7atmicro7IstreamE>:
 8dc:	fc 01       	movw	r30, r24
 8de:	31 96       	adiw	r30, 0x01	; 1
 8e0:	05 96       	adiw	r24, 0x05	; 5
 8e2:	60 e0       	ldi	r22, 0x00	; 0
 8e4:	70 e0       	ldi	r23, 0x00	; 0
 8e6:	5a e0       	ldi	r21, 0x0A	; 10
 8e8:	41 91       	ld	r20, Z+
 8ea:	56 9f       	mul	r21, r22
 8ec:	90 01       	movw	r18, r0
 8ee:	57 9f       	mul	r21, r23
 8f0:	30 0d       	add	r19, r0
 8f2:	11 24       	eor	r1, r1
 8f4:	b9 01       	movw	r22, r18
 8f6:	64 0f       	add	r22, r20
 8f8:	71 1d       	adc	r23, r1
 8fa:	60 53       	subi	r22, 0x30	; 48
 8fc:	71 09       	sbc	r23, r1
 8fe:	e8 17       	cp	r30, r24
 900:	f9 07       	cpc	r31, r25
 902:	91 f7       	brne	.-28     	; 0x8e8 <_Z6disarmRN7atmicro7IstreamE+0xc>
 904:	8a e5       	ldi	r24, 0x5A	; 90
 906:	91 e0       	ldi	r25, 0x01	; 1
 908:	0c 94 2d 06 	jmp	0xc5a	; 0xc5a <_ZN5State13checkPasscodeEi>

0000090c <_Z10changecodeRN7atmicro7IstreamE>:
 90c:	dc 01       	movw	r26, r24
 90e:	11 96       	adiw	r26, 0x01	; 1
 910:	fc 01       	movw	r30, r24
 912:	35 96       	adiw	r30, 0x05	; 5
 914:	60 e0       	ldi	r22, 0x00	; 0
 916:	70 e0       	ldi	r23, 0x00	; 0
 918:	5a e0       	ldi	r21, 0x0A	; 10
 91a:	4d 91       	ld	r20, X+
 91c:	56 9f       	mul	r21, r22
 91e:	90 01       	movw	r18, r0
 920:	57 9f       	mul	r21, r23
 922:	30 0d       	add	r19, r0
 924:	11 24       	eor	r1, r1
 926:	b9 01       	movw	r22, r18
 928:	64 0f       	add	r22, r20
 92a:	71 1d       	adc	r23, r1
 92c:	60 53       	subi	r22, 0x30	; 48
 92e:	71 09       	sbc	r23, r1
 930:	ae 17       	cp	r26, r30
 932:	bf 07       	cpc	r27, r31
 934:	91 f7       	brne	.-28     	; 0x91a <_Z10changecodeRN7atmicro7IstreamE+0xe>
 936:	09 96       	adiw	r24, 0x09	; 9
 938:	40 e0       	ldi	r20, 0x00	; 0
 93a:	50 e0       	ldi	r21, 0x00	; 0
 93c:	ba e0       	ldi	r27, 0x0A	; 10
 93e:	a1 91       	ld	r26, Z+
 940:	b4 9f       	mul	r27, r20
 942:	90 01       	movw	r18, r0
 944:	b5 9f       	mul	r27, r21
 946:	30 0d       	add	r19, r0
 948:	11 24       	eor	r1, r1
 94a:	a9 01       	movw	r20, r18
 94c:	4a 0f       	add	r20, r26
 94e:	51 1d       	adc	r21, r1
 950:	40 53       	subi	r20, 0x30	; 48
 952:	51 09       	sbc	r21, r1
 954:	e8 17       	cp	r30, r24
 956:	f9 07       	cpc	r31, r25
 958:	91 f7       	brne	.-28     	; 0x93e <_Z10changecodeRN7atmicro7IstreamE+0x32>
 95a:	8a e5       	ldi	r24, 0x5A	; 90
 95c:	91 e0       	ldi	r25, 0x01	; 1
 95e:	0c 94 21 06 	jmp	0xc42	; 0xc42 <_ZN5State11setPasscodeEii>

00000962 <_Z5parseRN7atmicro7IstreamERNS_15ParallelTextLCDE>:
 962:	ef 92       	push	r14
 964:	ff 92       	push	r15
 966:	0f 93       	push	r16
 968:	1f 93       	push	r17
 96a:	cf 93       	push	r28
 96c:	df 93       	push	r29
 96e:	8c 01       	movw	r16, r24
 970:	eb 01       	movw	r28, r22
 972:	fc 01       	movw	r30, r24
 974:	21 8d       	ldd	r18, Z+25	; 0x19
 976:	32 8d       	ldd	r19, Z+26	; 0x1a
 978:	21 15       	cp	r18, r1
 97a:	31 05       	cpc	r19, r1
 97c:	c1 f4       	brne	.+48     	; 0x9ae <_Z5parseRN7atmicro7IstreamERNS_15ParallelTextLCDE+0x4c>
 97e:	24 e8       	ldi	r18, 0x84	; 132
 980:	30 e0       	ldi	r19, 0x00	; 0
 982:	40 e0       	ldi	r20, 0x00	; 0
 984:	50 e0       	ldi	r21, 0x00	; 0
 986:	60 e0       	ldi	r22, 0x00	; 0
 988:	70 e0       	ldi	r23, 0x00	; 0
 98a:	ce 01       	movw	r24, r28
 98c:	0e 94 a5 03 	call	0x74a	; 0x74a <_ZN7atmicro15ParallelTextLCD6stringEiiPKc>
 990:	25 e9       	ldi	r18, 0x95	; 149
 992:	30 e0       	ldi	r19, 0x00	; 0
 994:	41 e0       	ldi	r20, 0x01	; 1
 996:	50 e0       	ldi	r21, 0x00	; 0
 998:	60 e0       	ldi	r22, 0x00	; 0
 99a:	70 e0       	ldi	r23, 0x00	; 0
 99c:	ce 01       	movw	r24, r28
 99e:	df 91       	pop	r29
 9a0:	cf 91       	pop	r28
 9a2:	1f 91       	pop	r17
 9a4:	0f 91       	pop	r16
 9a6:	ff 90       	pop	r15
 9a8:	ef 90       	pop	r14
 9aa:	0c 94 a5 03 	jmp	0x74a	; 0x74a <_ZN7atmicro15ParallelTextLCD6stringEiiPKc>
 9ae:	fc 01       	movw	r30, r24
 9b0:	80 81       	ld	r24, Z
 9b2:	81 34       	cpi	r24, 0x41	; 65
 9b4:	31 f4       	brne	.+12     	; 0x9c2 <_Z5parseRN7atmicro7IstreamERNS_15ParallelTextLCDE+0x60>
 9b6:	cb 01       	movw	r24, r22
 9b8:	0e 94 60 03 	call	0x6c0	; 0x6c0 <_ZN7atmicro15ParallelTextLCD5clearEv>
 9bc:	26 ea       	ldi	r18, 0xA6	; 166
 9be:	30 e0       	ldi	r19, 0x00	; 0
 9c0:	a5 c0       	rjmp	.+330    	; 0xb0c <_Z5parseRN7atmicro7IstreamERNS_15ParallelTextLCDE+0x1aa>
 9c2:	82 34       	cpi	r24, 0x42	; 66
 9c4:	09 f0       	breq	.+2      	; 0x9c8 <_Z5parseRN7atmicro7IstreamERNS_15ParallelTextLCDE+0x66>
 9c6:	41 c0       	rjmp	.+130    	; 0xa4a <_Z5parseRN7atmicro7IstreamERNS_15ParallelTextLCDE+0xe8>
 9c8:	27 eb       	ldi	r18, 0xB7	; 183
 9ca:	30 e0       	ldi	r19, 0x00	; 0
 9cc:	40 e0       	ldi	r20, 0x00	; 0
 9ce:	50 e0       	ldi	r21, 0x00	; 0
 9d0:	60 e0       	ldi	r22, 0x00	; 0
 9d2:	70 e0       	ldi	r23, 0x00	; 0
 9d4:	ce 01       	movw	r24, r28
 9d6:	0e 94 a5 03 	call	0x74a	; 0x74a <_ZN7atmicro15ParallelTextLCD6stringEiiPKc>
 9da:	ee 24       	eor	r14, r14
 9dc:	e3 94       	inc	r14
 9de:	f1 2c       	mov	r15, r1
 9e0:	f8 01       	movw	r30, r16
 9e2:	81 8d       	ldd	r24, Z+25	; 0x19
 9e4:	92 8d       	ldd	r25, Z+26	; 0x1a
 9e6:	e8 16       	cp	r14, r24
 9e8:	f9 06       	cpc	r15, r25
 9ea:	74 f4       	brge	.+28     	; 0xa08 <_Z5parseRN7atmicro7IstreamERNS_15ParallelTextLCDE+0xa6>
 9ec:	b7 01       	movw	r22, r14
 9ee:	65 5f       	subi	r22, 0xF5	; 245
 9f0:	7f 4f       	sbci	r23, 0xFF	; 255
 9f2:	2d ef       	ldi	r18, 0xFD	; 253
 9f4:	30 e0       	ldi	r19, 0x00	; 0
 9f6:	40 e0       	ldi	r20, 0x00	; 0
 9f8:	50 e0       	ldi	r21, 0x00	; 0
 9fa:	ce 01       	movw	r24, r28
 9fc:	0e 94 a5 03 	call	0x74a	; 0x74a <_ZN7atmicro15ParallelTextLCD6stringEiiPKc>
 a00:	9f ef       	ldi	r25, 0xFF	; 255
 a02:	e9 1a       	sub	r14, r25
 a04:	f9 0a       	sbc	r15, r25
 a06:	ec cf       	rjmp	.-40     	; 0x9e0 <_Z5parseRN7atmicro7IstreamERNS_15ParallelTextLCDE+0x7e>
 a08:	05 97       	sbiw	r24, 0x05	; 5
 a0a:	0c f4       	brge	.+2      	; 0xa0e <_Z5parseRN7atmicro7IstreamERNS_15ParallelTextLCDE+0xac>
 a0c:	d4 c0       	rjmp	.+424    	; 0xbb6 <_Z5parseRN7atmicro7IstreamERNS_15ParallelTextLCDE+0x254>
 a0e:	c8 01       	movw	r24, r16
 a10:	0e 94 6e 04 	call	0x8dc	; 0x8dc <_Z6disarmRN7atmicro7IstreamE>
 a14:	88 23       	and	r24, r24
 a16:	19 f0       	breq	.+6      	; 0xa1e <_Z5parseRN7atmicro7IstreamERNS_15ParallelTextLCDE+0xbc>
 a18:	23 ec       	ldi	r18, 0xC3	; 195
 a1a:	30 e0       	ldi	r19, 0x00	; 0
 a1c:	02 c0       	rjmp	.+4      	; 0xa22 <_Z5parseRN7atmicro7IstreamERNS_15ParallelTextLCDE+0xc0>
 a1e:	24 ed       	ldi	r18, 0xD4	; 212
 a20:	30 e0       	ldi	r19, 0x00	; 0
 a22:	41 e0       	ldi	r20, 0x01	; 1
 a24:	50 e0       	ldi	r21, 0x00	; 0
 a26:	60 e0       	ldi	r22, 0x00	; 0
 a28:	70 e0       	ldi	r23, 0x00	; 0
 a2a:	ce 01       	movw	r24, r28
 a2c:	0e 94 a5 03 	call	0x74a	; 0x74a <_ZN7atmicro15ParallelTextLCD6stringEiiPKc>
 a30:	c8 01       	movw	r24, r16
 a32:	0e 94 b5 03 	call	0x76a	; 0x76a <_ZN7atmicro7Istream5clearEv>
 a36:	ff e7       	ldi	r31, 0x7F	; 127
 a38:	2a e1       	ldi	r18, 0x1A	; 26
 a3a:	86 e0       	ldi	r24, 0x06	; 6
 a3c:	f1 50       	subi	r31, 0x01	; 1
 a3e:	20 40       	sbci	r18, 0x00	; 0
 a40:	80 40       	sbci	r24, 0x00	; 0
 a42:	e1 f7       	brne	.-8      	; 0xa3c <_Z5parseRN7atmicro7IstreamERNS_15ParallelTextLCDE+0xda>
 a44:	00 c0       	rjmp	.+0      	; 0xa46 <_Z5parseRN7atmicro7IstreamERNS_15ParallelTextLCDE+0xe4>
 a46:	00 00       	nop
 a48:	ad c0       	rjmp	.+346    	; 0xba4 <_Z5parseRN7atmicro7IstreamERNS_15ParallelTextLCDE+0x242>
 a4a:	83 34       	cpi	r24, 0x43	; 67
 a4c:	09 f0       	breq	.+2      	; 0xa50 <_Z5parseRN7atmicro7IstreamERNS_15ParallelTextLCDE+0xee>
 a4e:	61 c0       	rjmp	.+194    	; 0xb12 <_Z5parseRN7atmicro7IstreamERNS_15ParallelTextLCDE+0x1b0>
 a50:	25 30       	cpi	r18, 0x05	; 5
 a52:	31 05       	cpc	r19, r1
 a54:	0c f5       	brge	.+66     	; 0xa98 <_Z5parseRN7atmicro7IstreamERNS_15ParallelTextLCDE+0x136>
 a56:	25 ee       	ldi	r18, 0xE5	; 229
 a58:	30 e0       	ldi	r19, 0x00	; 0
 a5a:	40 e0       	ldi	r20, 0x00	; 0
 a5c:	50 e0       	ldi	r21, 0x00	; 0
 a5e:	60 e0       	ldi	r22, 0x00	; 0
 a60:	70 e0       	ldi	r23, 0x00	; 0
 a62:	ce 01       	movw	r24, r28
 a64:	0e 94 a5 03 	call	0x74a	; 0x74a <_ZN7atmicro15ParallelTextLCD6stringEiiPKc>
 a68:	ee 24       	eor	r14, r14
 a6a:	e3 94       	inc	r14
 a6c:	f1 2c       	mov	r15, r1
 a6e:	f8 01       	movw	r30, r16
 a70:	81 8d       	ldd	r24, Z+25	; 0x19
 a72:	92 8d       	ldd	r25, Z+26	; 0x1a
 a74:	e8 16       	cp	r14, r24
 a76:	f9 06       	cpc	r15, r25
 a78:	0c f0       	brlt	.+2      	; 0xa7c <_Z5parseRN7atmicro7IstreamERNS_15ParallelTextLCDE+0x11a>
 a7a:	9d c0       	rjmp	.+314    	; 0xbb6 <_Z5parseRN7atmicro7IstreamERNS_15ParallelTextLCDE+0x254>
 a7c:	b7 01       	movw	r22, r14
 a7e:	67 5f       	subi	r22, 0xF7	; 247
 a80:	7f 4f       	sbci	r23, 0xFF	; 255
 a82:	2d ef       	ldi	r18, 0xFD	; 253
 a84:	30 e0       	ldi	r19, 0x00	; 0
 a86:	40 e0       	ldi	r20, 0x00	; 0
 a88:	50 e0       	ldi	r21, 0x00	; 0
 a8a:	ce 01       	movw	r24, r28
 a8c:	0e 94 a5 03 	call	0x74a	; 0x74a <_ZN7atmicro15ParallelTextLCD6stringEiiPKc>
 a90:	9f ef       	ldi	r25, 0xFF	; 255
 a92:	e9 1a       	sub	r14, r25
 a94:	f9 0a       	sbc	r15, r25
 a96:	eb cf       	rjmp	.-42     	; 0xa6e <_Z5parseRN7atmicro7IstreamERNS_15ParallelTextLCDE+0x10c>
 a98:	29 30       	cpi	r18, 0x09	; 9
 a9a:	31 05       	cpc	r19, r1
 a9c:	54 f5       	brge	.+84     	; 0xaf2 <_Z5parseRN7atmicro7IstreamERNS_15ParallelTextLCDE+0x190>
 a9e:	20 ef       	ldi	r18, 0xF0	; 240
 aa0:	30 e0       	ldi	r19, 0x00	; 0
 aa2:	40 e0       	ldi	r20, 0x00	; 0
 aa4:	50 e0       	ldi	r21, 0x00	; 0
 aa6:	60 e0       	ldi	r22, 0x00	; 0
 aa8:	70 e0       	ldi	r23, 0x00	; 0
 aaa:	ce 01       	movw	r24, r28
 aac:	0e 94 a5 03 	call	0x74a	; 0x74a <_ZN7atmicro15ParallelTextLCD6stringEiiPKc>
 ab0:	2f ef       	ldi	r18, 0xFF	; 255
 ab2:	30 e0       	ldi	r19, 0x00	; 0
 ab4:	41 e0       	ldi	r20, 0x01	; 1
 ab6:	50 e0       	ldi	r21, 0x00	; 0
 ab8:	60 e0       	ldi	r22, 0x00	; 0
 aba:	70 e0       	ldi	r23, 0x00	; 0
 abc:	ce 01       	movw	r24, r28
 abe:	0e 94 a5 03 	call	0x74a	; 0x74a <_ZN7atmicro15ParallelTextLCD6stringEiiPKc>
 ac2:	85 e0       	ldi	r24, 0x05	; 5
 ac4:	e8 2e       	mov	r14, r24
 ac6:	f1 2c       	mov	r15, r1
 ac8:	f8 01       	movw	r30, r16
 aca:	81 8d       	ldd	r24, Z+25	; 0x19
 acc:	92 8d       	ldd	r25, Z+26	; 0x1a
 ace:	e8 16       	cp	r14, r24
 ad0:	f9 06       	cpc	r15, r25
 ad2:	0c f0       	brlt	.+2      	; 0xad6 <_Z5parseRN7atmicro7IstreamERNS_15ParallelTextLCDE+0x174>
 ad4:	70 c0       	rjmp	.+224    	; 0xbb6 <_Z5parseRN7atmicro7IstreamERNS_15ParallelTextLCDE+0x254>
 ad6:	b7 01       	movw	r22, r14
 ad8:	6b 5f       	subi	r22, 0xFB	; 251
 ada:	7f 4f       	sbci	r23, 0xFF	; 255
 adc:	2d ef       	ldi	r18, 0xFD	; 253
 ade:	30 e0       	ldi	r19, 0x00	; 0
 ae0:	41 e0       	ldi	r20, 0x01	; 1
 ae2:	50 e0       	ldi	r21, 0x00	; 0
 ae4:	ce 01       	movw	r24, r28
 ae6:	0e 94 a5 03 	call	0x74a	; 0x74a <_ZN7atmicro15ParallelTextLCD6stringEiiPKc>
 aea:	ff ef       	ldi	r31, 0xFF	; 255
 aec:	ef 1a       	sub	r14, r31
 aee:	ff 0a       	sbc	r15, r31
 af0:	eb cf       	rjmp	.-42     	; 0xac8 <_Z5parseRN7atmicro7IstreamERNS_15ParallelTextLCDE+0x166>
 af2:	cb 01       	movw	r24, r22
 af4:	0e 94 60 03 	call	0x6c0	; 0x6c0 <_ZN7atmicro15ParallelTextLCD5clearEv>
 af8:	c8 01       	movw	r24, r16
 afa:	0e 94 86 04 	call	0x90c	; 0x90c <_Z10changecodeRN7atmicro7IstreamE>
 afe:	88 23       	and	r24, r24
 b00:	19 f0       	breq	.+6      	; 0xb08 <_Z5parseRN7atmicro7IstreamERNS_15ParallelTextLCDE+0x1a6>
 b02:	2a e0       	ldi	r18, 0x0A	; 10
 b04:	31 e0       	ldi	r19, 0x01	; 1
 b06:	02 c0       	rjmp	.+4      	; 0xb0c <_Z5parseRN7atmicro7IstreamERNS_15ParallelTextLCDE+0x1aa>
 b08:	2b e1       	ldi	r18, 0x1B	; 27
 b0a:	31 e0       	ldi	r19, 0x01	; 1
 b0c:	40 e0       	ldi	r20, 0x00	; 0
 b0e:	50 e0       	ldi	r21, 0x00	; 0
 b10:	8a cf       	rjmp	.-236    	; 0xa26 <_Z5parseRN7atmicro7IstreamERNS_15ParallelTextLCDE+0xc4>
 b12:	84 34       	cpi	r24, 0x44	; 68
 b14:	79 f5       	brne	.+94     	; 0xb74 <_Z5parseRN7atmicro7IstreamERNS_15ParallelTextLCDE+0x212>
 b16:	2c e2       	ldi	r18, 0x2C	; 44
 b18:	31 e0       	ldi	r19, 0x01	; 1
 b1a:	40 e0       	ldi	r20, 0x00	; 0
 b1c:	50 e0       	ldi	r21, 0x00	; 0
 b1e:	60 e0       	ldi	r22, 0x00	; 0
 b20:	70 e0       	ldi	r23, 0x00	; 0
 b22:	ce 01       	movw	r24, r28
 b24:	0e 94 a5 03 	call	0x74a	; 0x74a <_ZN7atmicro15ParallelTextLCD6stringEiiPKc>
 b28:	f8 01       	movw	r30, r16
 b2a:	81 8d       	ldd	r24, Z+25	; 0x19
 b2c:	92 8d       	ldd	r25, Z+26	; 0x1a
 b2e:	02 97       	sbiw	r24, 0x02	; 2
 b30:	0c f4       	brge	.+2      	; 0xb34 <_Z5parseRN7atmicro7IstreamERNS_15ParallelTextLCDE+0x1d2>
 b32:	41 c0       	rjmp	.+130    	; 0xbb6 <_Z5parseRN7atmicro7IstreamERNS_15ParallelTextLCDE+0x254>
 b34:	98 01       	movw	r18, r16
 b36:	2f 5f       	subi	r18, 0xFF	; 255
 b38:	3f 4f       	sbci	r19, 0xFF	; 255
 b3a:	40 e0       	ldi	r20, 0x00	; 0
 b3c:	50 e0       	ldi	r21, 0x00	; 0
 b3e:	6e e0       	ldi	r22, 0x0E	; 14
 b40:	70 e0       	ldi	r23, 0x00	; 0
 b42:	ce 01       	movw	r24, r28
 b44:	0e 94 a5 03 	call	0x74a	; 0x74a <_ZN7atmicro15ParallelTextLCD6stringEiiPKc>
 b48:	2a e3       	ldi	r18, 0x3A	; 58
 b4a:	31 e0       	ldi	r19, 0x01	; 1
 b4c:	41 e0       	ldi	r20, 0x01	; 1
 b4e:	50 e0       	ldi	r21, 0x00	; 0
 b50:	60 e0       	ldi	r22, 0x00	; 0
 b52:	70 e0       	ldi	r23, 0x00	; 0
 b54:	ce 01       	movw	r24, r28
 b56:	0e 94 a5 03 	call	0x74a	; 0x74a <_ZN7atmicro15ParallelTextLCD6stringEiiPKc>
 b5a:	c8 01       	movw	r24, r16
 b5c:	0e 94 b5 03 	call	0x76a	; 0x76a <_ZN7atmicro7Istream5clearEv>
 b60:	ff e7       	ldi	r31, 0x7F	; 127
 b62:	2a e1       	ldi	r18, 0x1A	; 26
 b64:	86 e0       	ldi	r24, 0x06	; 6
 b66:	f1 50       	subi	r31, 0x01	; 1
 b68:	20 40       	sbci	r18, 0x00	; 0
 b6a:	80 40       	sbci	r24, 0x00	; 0
 b6c:	e1 f7       	brne	.-8      	; 0xb66 <_Z5parseRN7atmicro7IstreamERNS_15ParallelTextLCDE+0x204>
 b6e:	00 c0       	rjmp	.+0      	; 0xb70 <_Z5parseRN7atmicro7IstreamERNS_15ParallelTextLCDE+0x20e>
 b70:	00 00       	nop
 b72:	21 c0       	rjmp	.+66     	; 0xbb6 <_Z5parseRN7atmicro7IstreamERNS_15ParallelTextLCDE+0x254>
 b74:	cb 01       	movw	r24, r22
 b76:	0e 94 60 03 	call	0x6c0	; 0x6c0 <_ZN7atmicro15ParallelTextLCD5clearEv>
 b7a:	2b e4       	ldi	r18, 0x4B	; 75
 b7c:	31 e0       	ldi	r19, 0x01	; 1
 b7e:	40 e0       	ldi	r20, 0x00	; 0
 b80:	50 e0       	ldi	r21, 0x00	; 0
 b82:	60 e0       	ldi	r22, 0x00	; 0
 b84:	70 e0       	ldi	r23, 0x00	; 0
 b86:	ce 01       	movw	r24, r28
 b88:	0e 94 a5 03 	call	0x74a	; 0x74a <_ZN7atmicro15ParallelTextLCD6stringEiiPKc>
 b8c:	9f e7       	ldi	r25, 0x7F	; 127
 b8e:	ea e1       	ldi	r30, 0x1A	; 26
 b90:	f6 e0       	ldi	r31, 0x06	; 6
 b92:	91 50       	subi	r25, 0x01	; 1
 b94:	e0 40       	sbci	r30, 0x00	; 0
 b96:	f0 40       	sbci	r31, 0x00	; 0
 b98:	e1 f7       	brne	.-8      	; 0xb92 <_Z5parseRN7atmicro7IstreamERNS_15ParallelTextLCDE+0x230>
 b9a:	00 c0       	rjmp	.+0      	; 0xb9c <_Z5parseRN7atmicro7IstreamERNS_15ParallelTextLCDE+0x23a>
 b9c:	00 00       	nop
 b9e:	c8 01       	movw	r24, r16
 ba0:	0e 94 b5 03 	call	0x76a	; 0x76a <_ZN7atmicro7Istream5clearEv>
 ba4:	ce 01       	movw	r24, r28
 ba6:	df 91       	pop	r29
 ba8:	cf 91       	pop	r28
 baa:	1f 91       	pop	r17
 bac:	0f 91       	pop	r16
 bae:	ff 90       	pop	r15
 bb0:	ef 90       	pop	r14
 bb2:	0c 94 60 03 	jmp	0x6c0	; 0x6c0 <_ZN7atmicro15ParallelTextLCD5clearEv>
 bb6:	df 91       	pop	r29
 bb8:	cf 91       	pop	r28
 bba:	1f 91       	pop	r17
 bbc:	0f 91       	pop	r16
 bbe:	ff 90       	pop	r15
 bc0:	ef 90       	pop	r14
 bc2:	08 95       	ret

00000bc4 <main>:
 bc4:	cf 93       	push	r28
 bc6:	df 93       	push	r29
 bc8:	cd b7       	in	r28, 0x3d	; 61
 bca:	de b7       	in	r29, 0x3e	; 62
 bcc:	ce 54       	subi	r28, 0x4E	; 78
 bce:	d1 09       	sbc	r29, r1
 bd0:	0f b6       	in	r0, 0x3f	; 63
 bd2:	f8 94       	cli
 bd4:	de bf       	out	0x3e, r29	; 62
 bd6:	0f be       	out	0x3f, r0	; 63
 bd8:	cd bf       	out	0x3d, r28	; 61
 bda:	60 e1       	ldi	r22, 0x10	; 16
 bdc:	ce 01       	movw	r24, r28
 bde:	8e 96       	adiw	r24, 0x2e	; 46
 be0:	0e 94 d9 01 	call	0x3b2	; 0x3b2 <_ZN7atmicro6KeypadC1ENS_4PORTE>
 be4:	ce 01       	movw	r24, r28
 be6:	01 96       	adiw	r24, 0x01	; 1
 be8:	0e 94 c3 03 	call	0x786	; 0x786 <_ZN7atmicro7IstreamC1Ev>
 bec:	0d e1       	ldi	r16, 0x1D	; 29
 bee:	2f e1       	ldi	r18, 0x1F	; 31
 bf0:	4a e1       	ldi	r20, 0x1A	; 26
 bf2:	68 e0       	ldi	r22, 0x08	; 8
 bf4:	ce 01       	movw	r24, r28
 bf6:	8f 5b       	subi	r24, 0xBF	; 191
 bf8:	9f 4f       	sbci	r25, 0xFF	; 255
 bfa:	0e 94 3a 03 	call	0x674	; 0x674 <_ZN7atmicro15ParallelTextLCDC1ENS_4PORTENS_3PINES2_S2_>
 bfe:	be 01       	movw	r22, r28
 c00:	62 5d       	subi	r22, 0xD2	; 210
 c02:	7f 4f       	sbci	r23, 0xFF	; 255
 c04:	ce 01       	movw	r24, r28
 c06:	01 96       	adiw	r24, 0x01	; 1
 c08:	0e 94 f0 03 	call	0x7e0	; 0x7e0 <_ZN7atmicro7Istream6updateERNS_6KeypadE>
 c0c:	be 01       	movw	r22, r28
 c0e:	6f 5b       	subi	r22, 0xBF	; 191
 c10:	7f 4f       	sbci	r23, 0xFF	; 255
 c12:	ce 01       	movw	r24, r28
 c14:	01 96       	adiw	r24, 0x01	; 1
 c16:	0e 94 b1 04 	call	0x962	; 0x962 <_Z5parseRN7atmicro7IstreamERNS_15ParallelTextLCDE>
 c1a:	f1 cf       	rjmp	.-30     	; 0xbfe <main+0x3a>

00000c1c <_GLOBAL__sub_I_state>:
 c1c:	8a e5       	ldi	r24, 0x5A	; 90
 c1e:	91 e0       	ldi	r25, 0x01	; 1
 c20:	0c 94 16 06 	jmp	0xc2c	; 0xc2c <_ZN5StateC1Ev>

00000c24 <_GLOBAL__sub_D_state>:
 c24:	8a e5       	ldi	r24, 0x5A	; 90
 c26:	91 e0       	ldi	r25, 0x01	; 1
 c28:	0c 94 20 06 	jmp	0xc40	; 0xc40 <_ZN5StateD1Ev>

00000c2c <_ZN5StateC1Ev>:
 c2c:	fc 01       	movw	r30, r24
 c2e:	11 82       	std	Z+1, r1	; 0x01
 c30:	10 82       	st	Z, r1
 c32:	81 e0       	ldi	r24, 0x01	; 1
 c34:	84 83       	std	Z+4, r24	; 0x04
 c36:	8f ef       	ldi	r24, 0xFF	; 255
 c38:	90 e0       	ldi	r25, 0x00	; 0
 c3a:	96 83       	std	Z+6, r25	; 0x06
 c3c:	85 83       	std	Z+5, r24	; 0x05
 c3e:	08 95       	ret

00000c40 <_ZN5StateD1Ev>:
 c40:	08 95       	ret

00000c42 <_ZN5State11setPasscodeEii>:
 c42:	fc 01       	movw	r30, r24
 c44:	20 81       	ld	r18, Z
 c46:	31 81       	ldd	r19, Z+1	; 0x01
 c48:	26 17       	cp	r18, r22
 c4a:	37 07       	cpc	r19, r23
 c4c:	21 f4       	brne	.+8      	; 0xc56 <_ZN5State11setPasscodeEii+0x14>
 c4e:	51 83       	std	Z+1, r21	; 0x01
 c50:	40 83       	st	Z, r20
 c52:	81 e0       	ldi	r24, 0x01	; 1
 c54:	08 95       	ret
 c56:	80 e0       	ldi	r24, 0x00	; 0
 c58:	08 95       	ret

00000c5a <_ZN5State13checkPasscodeEi>:
 c5a:	fc 01       	movw	r30, r24
 c5c:	81 e0       	ldi	r24, 0x01	; 1
 c5e:	20 81       	ld	r18, Z
 c60:	31 81       	ldd	r19, Z+1	; 0x01
 c62:	62 17       	cp	r22, r18
 c64:	73 07       	cpc	r23, r19
 c66:	09 f0       	breq	.+2      	; 0xc6a <_ZN5State13checkPasscodeEi+0x10>
 c68:	80 e0       	ldi	r24, 0x00	; 0
 c6a:	08 95       	ret

00000c6c <__subsf3>:
 c6c:	50 58       	subi	r21, 0x80	; 128

00000c6e <__addsf3>:
 c6e:	bb 27       	eor	r27, r27
 c70:	aa 27       	eor	r26, r26
 c72:	0e 94 4e 06 	call	0xc9c	; 0xc9c <__addsf3x>
 c76:	0c 94 55 07 	jmp	0xeaa	; 0xeaa <__fp_round>
 c7a:	0e 94 47 07 	call	0xe8e	; 0xe8e <__fp_pscA>
 c7e:	38 f0       	brcs	.+14     	; 0xc8e <__addsf3+0x20>
 c80:	0e 94 4e 07 	call	0xe9c	; 0xe9c <__fp_pscB>
 c84:	20 f0       	brcs	.+8      	; 0xc8e <__addsf3+0x20>
 c86:	39 f4       	brne	.+14     	; 0xc96 <__addsf3+0x28>
 c88:	9f 3f       	cpi	r25, 0xFF	; 255
 c8a:	19 f4       	brne	.+6      	; 0xc92 <__addsf3+0x24>
 c8c:	26 f4       	brtc	.+8      	; 0xc96 <__addsf3+0x28>
 c8e:	0c 94 44 07 	jmp	0xe88	; 0xe88 <__fp_nan>
 c92:	0e f4       	brtc	.+2      	; 0xc96 <__addsf3+0x28>
 c94:	e0 95       	com	r30
 c96:	e7 fb       	bst	r30, 7
 c98:	0c 94 3e 07 	jmp	0xe7c	; 0xe7c <__fp_inf>

00000c9c <__addsf3x>:
 c9c:	e9 2f       	mov	r30, r25
 c9e:	0e 94 66 07 	call	0xecc	; 0xecc <__fp_split3>
 ca2:	58 f3       	brcs	.-42     	; 0xc7a <__addsf3+0xc>
 ca4:	ba 17       	cp	r27, r26
 ca6:	62 07       	cpc	r22, r18
 ca8:	73 07       	cpc	r23, r19
 caa:	84 07       	cpc	r24, r20
 cac:	95 07       	cpc	r25, r21
 cae:	20 f0       	brcs	.+8      	; 0xcb8 <__addsf3x+0x1c>
 cb0:	79 f4       	brne	.+30     	; 0xcd0 <__addsf3x+0x34>
 cb2:	a6 f5       	brtc	.+104    	; 0xd1c <__addsf3x+0x80>
 cb4:	0c 94 88 07 	jmp	0xf10	; 0xf10 <__fp_zero>
 cb8:	0e f4       	brtc	.+2      	; 0xcbc <__addsf3x+0x20>
 cba:	e0 95       	com	r30
 cbc:	0b 2e       	mov	r0, r27
 cbe:	ba 2f       	mov	r27, r26
 cc0:	a0 2d       	mov	r26, r0
 cc2:	0b 01       	movw	r0, r22
 cc4:	b9 01       	movw	r22, r18
 cc6:	90 01       	movw	r18, r0
 cc8:	0c 01       	movw	r0, r24
 cca:	ca 01       	movw	r24, r20
 ccc:	a0 01       	movw	r20, r0
 cce:	11 24       	eor	r1, r1
 cd0:	ff 27       	eor	r31, r31
 cd2:	59 1b       	sub	r21, r25
 cd4:	99 f0       	breq	.+38     	; 0xcfc <__addsf3x+0x60>
 cd6:	59 3f       	cpi	r21, 0xF9	; 249
 cd8:	50 f4       	brcc	.+20     	; 0xcee <__addsf3x+0x52>
 cda:	50 3e       	cpi	r21, 0xE0	; 224
 cdc:	68 f1       	brcs	.+90     	; 0xd38 <__addsf3x+0x9c>
 cde:	1a 16       	cp	r1, r26
 ce0:	f0 40       	sbci	r31, 0x00	; 0
 ce2:	a2 2f       	mov	r26, r18
 ce4:	23 2f       	mov	r18, r19
 ce6:	34 2f       	mov	r19, r20
 ce8:	44 27       	eor	r20, r20
 cea:	58 5f       	subi	r21, 0xF8	; 248
 cec:	f3 cf       	rjmp	.-26     	; 0xcd4 <__addsf3x+0x38>
 cee:	46 95       	lsr	r20
 cf0:	37 95       	ror	r19
 cf2:	27 95       	ror	r18
 cf4:	a7 95       	ror	r26
 cf6:	f0 40       	sbci	r31, 0x00	; 0
 cf8:	53 95       	inc	r21
 cfa:	c9 f7       	brne	.-14     	; 0xcee <__addsf3x+0x52>
 cfc:	7e f4       	brtc	.+30     	; 0xd1c <__addsf3x+0x80>
 cfe:	1f 16       	cp	r1, r31
 d00:	ba 0b       	sbc	r27, r26
 d02:	62 0b       	sbc	r22, r18
 d04:	73 0b       	sbc	r23, r19
 d06:	84 0b       	sbc	r24, r20
 d08:	ba f0       	brmi	.+46     	; 0xd38 <__addsf3x+0x9c>
 d0a:	91 50       	subi	r25, 0x01	; 1
 d0c:	a1 f0       	breq	.+40     	; 0xd36 <__addsf3x+0x9a>
 d0e:	ff 0f       	add	r31, r31
 d10:	bb 1f       	adc	r27, r27
 d12:	66 1f       	adc	r22, r22
 d14:	77 1f       	adc	r23, r23
 d16:	88 1f       	adc	r24, r24
 d18:	c2 f7       	brpl	.-16     	; 0xd0a <__addsf3x+0x6e>
 d1a:	0e c0       	rjmp	.+28     	; 0xd38 <__addsf3x+0x9c>
 d1c:	ba 0f       	add	r27, r26
 d1e:	62 1f       	adc	r22, r18
 d20:	73 1f       	adc	r23, r19
 d22:	84 1f       	adc	r24, r20
 d24:	48 f4       	brcc	.+18     	; 0xd38 <__addsf3x+0x9c>
 d26:	87 95       	ror	r24
 d28:	77 95       	ror	r23
 d2a:	67 95       	ror	r22
 d2c:	b7 95       	ror	r27
 d2e:	f7 95       	ror	r31
 d30:	9e 3f       	cpi	r25, 0xFE	; 254
 d32:	08 f0       	brcs	.+2      	; 0xd36 <__addsf3x+0x9a>
 d34:	b0 cf       	rjmp	.-160    	; 0xc96 <__addsf3+0x28>
 d36:	93 95       	inc	r25
 d38:	88 0f       	add	r24, r24
 d3a:	08 f0       	brcs	.+2      	; 0xd3e <__addsf3x+0xa2>
 d3c:	99 27       	eor	r25, r25
 d3e:	ee 0f       	add	r30, r30
 d40:	97 95       	ror	r25
 d42:	87 95       	ror	r24
 d44:	08 95       	ret

00000d46 <__cmpsf2>:
 d46:	0e 94 1a 07 	call	0xe34	; 0xe34 <__fp_cmp>
 d4a:	08 f4       	brcc	.+2      	; 0xd4e <__cmpsf2+0x8>
 d4c:	81 e0       	ldi	r24, 0x01	; 1
 d4e:	08 95       	ret

00000d50 <__divsf3>:
 d50:	0e 94 bc 06 	call	0xd78	; 0xd78 <__divsf3x>
 d54:	0c 94 55 07 	jmp	0xeaa	; 0xeaa <__fp_round>
 d58:	0e 94 4e 07 	call	0xe9c	; 0xe9c <__fp_pscB>
 d5c:	58 f0       	brcs	.+22     	; 0xd74 <__divsf3+0x24>
 d5e:	0e 94 47 07 	call	0xe8e	; 0xe8e <__fp_pscA>
 d62:	40 f0       	brcs	.+16     	; 0xd74 <__divsf3+0x24>
 d64:	29 f4       	brne	.+10     	; 0xd70 <__divsf3+0x20>
 d66:	5f 3f       	cpi	r21, 0xFF	; 255
 d68:	29 f0       	breq	.+10     	; 0xd74 <__divsf3+0x24>
 d6a:	0c 94 3e 07 	jmp	0xe7c	; 0xe7c <__fp_inf>
 d6e:	51 11       	cpse	r21, r1
 d70:	0c 94 89 07 	jmp	0xf12	; 0xf12 <__fp_szero>
 d74:	0c 94 44 07 	jmp	0xe88	; 0xe88 <__fp_nan>

00000d78 <__divsf3x>:
 d78:	0e 94 66 07 	call	0xecc	; 0xecc <__fp_split3>
 d7c:	68 f3       	brcs	.-38     	; 0xd58 <__divsf3+0x8>

00000d7e <__divsf3_pse>:
 d7e:	99 23       	and	r25, r25
 d80:	b1 f3       	breq	.-20     	; 0xd6e <__divsf3+0x1e>
 d82:	55 23       	and	r21, r21
 d84:	91 f3       	breq	.-28     	; 0xd6a <__divsf3+0x1a>
 d86:	95 1b       	sub	r25, r21
 d88:	55 0b       	sbc	r21, r21
 d8a:	bb 27       	eor	r27, r27
 d8c:	aa 27       	eor	r26, r26
 d8e:	62 17       	cp	r22, r18
 d90:	73 07       	cpc	r23, r19
 d92:	84 07       	cpc	r24, r20
 d94:	38 f0       	brcs	.+14     	; 0xda4 <__divsf3_pse+0x26>
 d96:	9f 5f       	subi	r25, 0xFF	; 255
 d98:	5f 4f       	sbci	r21, 0xFF	; 255
 d9a:	22 0f       	add	r18, r18
 d9c:	33 1f       	adc	r19, r19
 d9e:	44 1f       	adc	r20, r20
 da0:	aa 1f       	adc	r26, r26
 da2:	a9 f3       	breq	.-22     	; 0xd8e <__divsf3_pse+0x10>
 da4:	35 d0       	rcall	.+106    	; 0xe10 <__divsf3_pse+0x92>
 da6:	0e 2e       	mov	r0, r30
 da8:	3a f0       	brmi	.+14     	; 0xdb8 <__divsf3_pse+0x3a>
 daa:	e0 e8       	ldi	r30, 0x80	; 128
 dac:	32 d0       	rcall	.+100    	; 0xe12 <__divsf3_pse+0x94>
 dae:	91 50       	subi	r25, 0x01	; 1
 db0:	50 40       	sbci	r21, 0x00	; 0
 db2:	e6 95       	lsr	r30
 db4:	00 1c       	adc	r0, r0
 db6:	ca f7       	brpl	.-14     	; 0xdaa <__divsf3_pse+0x2c>
 db8:	2b d0       	rcall	.+86     	; 0xe10 <__divsf3_pse+0x92>
 dba:	fe 2f       	mov	r31, r30
 dbc:	29 d0       	rcall	.+82     	; 0xe10 <__divsf3_pse+0x92>
 dbe:	66 0f       	add	r22, r22
 dc0:	77 1f       	adc	r23, r23
 dc2:	88 1f       	adc	r24, r24
 dc4:	bb 1f       	adc	r27, r27
 dc6:	26 17       	cp	r18, r22
 dc8:	37 07       	cpc	r19, r23
 dca:	48 07       	cpc	r20, r24
 dcc:	ab 07       	cpc	r26, r27
 dce:	b0 e8       	ldi	r27, 0x80	; 128
 dd0:	09 f0       	breq	.+2      	; 0xdd4 <__divsf3_pse+0x56>
 dd2:	bb 0b       	sbc	r27, r27
 dd4:	80 2d       	mov	r24, r0
 dd6:	bf 01       	movw	r22, r30
 dd8:	ff 27       	eor	r31, r31
 dda:	93 58       	subi	r25, 0x83	; 131
 ddc:	5f 4f       	sbci	r21, 0xFF	; 255
 dde:	3a f0       	brmi	.+14     	; 0xdee <__divsf3_pse+0x70>
 de0:	9e 3f       	cpi	r25, 0xFE	; 254
 de2:	51 05       	cpc	r21, r1
 de4:	78 f0       	brcs	.+30     	; 0xe04 <__divsf3_pse+0x86>
 de6:	0c 94 3e 07 	jmp	0xe7c	; 0xe7c <__fp_inf>
 dea:	0c 94 89 07 	jmp	0xf12	; 0xf12 <__fp_szero>
 dee:	5f 3f       	cpi	r21, 0xFF	; 255
 df0:	e4 f3       	brlt	.-8      	; 0xdea <__divsf3_pse+0x6c>
 df2:	98 3e       	cpi	r25, 0xE8	; 232
 df4:	d4 f3       	brlt	.-12     	; 0xdea <__divsf3_pse+0x6c>
 df6:	86 95       	lsr	r24
 df8:	77 95       	ror	r23
 dfa:	67 95       	ror	r22
 dfc:	b7 95       	ror	r27
 dfe:	f7 95       	ror	r31
 e00:	9f 5f       	subi	r25, 0xFF	; 255
 e02:	c9 f7       	brne	.-14     	; 0xdf6 <__divsf3_pse+0x78>
 e04:	88 0f       	add	r24, r24
 e06:	91 1d       	adc	r25, r1
 e08:	96 95       	lsr	r25
 e0a:	87 95       	ror	r24
 e0c:	97 f9       	bld	r25, 7
 e0e:	08 95       	ret
 e10:	e1 e0       	ldi	r30, 0x01	; 1
 e12:	66 0f       	add	r22, r22
 e14:	77 1f       	adc	r23, r23
 e16:	88 1f       	adc	r24, r24
 e18:	bb 1f       	adc	r27, r27
 e1a:	62 17       	cp	r22, r18
 e1c:	73 07       	cpc	r23, r19
 e1e:	84 07       	cpc	r24, r20
 e20:	ba 07       	cpc	r27, r26
 e22:	20 f0       	brcs	.+8      	; 0xe2c <__divsf3_pse+0xae>
 e24:	62 1b       	sub	r22, r18
 e26:	73 0b       	sbc	r23, r19
 e28:	84 0b       	sbc	r24, r20
 e2a:	ba 0b       	sbc	r27, r26
 e2c:	ee 1f       	adc	r30, r30
 e2e:	88 f7       	brcc	.-30     	; 0xe12 <__divsf3_pse+0x94>
 e30:	e0 95       	com	r30
 e32:	08 95       	ret

00000e34 <__fp_cmp>:
 e34:	99 0f       	add	r25, r25
 e36:	00 08       	sbc	r0, r0
 e38:	55 0f       	add	r21, r21
 e3a:	aa 0b       	sbc	r26, r26
 e3c:	e0 e8       	ldi	r30, 0x80	; 128
 e3e:	fe ef       	ldi	r31, 0xFE	; 254
 e40:	16 16       	cp	r1, r22
 e42:	17 06       	cpc	r1, r23
 e44:	e8 07       	cpc	r30, r24
 e46:	f9 07       	cpc	r31, r25
 e48:	c0 f0       	brcs	.+48     	; 0xe7a <__fp_cmp+0x46>
 e4a:	12 16       	cp	r1, r18
 e4c:	13 06       	cpc	r1, r19
 e4e:	e4 07       	cpc	r30, r20
 e50:	f5 07       	cpc	r31, r21
 e52:	98 f0       	brcs	.+38     	; 0xe7a <__fp_cmp+0x46>
 e54:	62 1b       	sub	r22, r18
 e56:	73 0b       	sbc	r23, r19
 e58:	84 0b       	sbc	r24, r20
 e5a:	95 0b       	sbc	r25, r21
 e5c:	39 f4       	brne	.+14     	; 0xe6c <__fp_cmp+0x38>
 e5e:	0a 26       	eor	r0, r26
 e60:	61 f0       	breq	.+24     	; 0xe7a <__fp_cmp+0x46>
 e62:	23 2b       	or	r18, r19
 e64:	24 2b       	or	r18, r20
 e66:	25 2b       	or	r18, r21
 e68:	21 f4       	brne	.+8      	; 0xe72 <__fp_cmp+0x3e>
 e6a:	08 95       	ret
 e6c:	0a 26       	eor	r0, r26
 e6e:	09 f4       	brne	.+2      	; 0xe72 <__fp_cmp+0x3e>
 e70:	a1 40       	sbci	r26, 0x01	; 1
 e72:	a6 95       	lsr	r26
 e74:	8f ef       	ldi	r24, 0xFF	; 255
 e76:	81 1d       	adc	r24, r1
 e78:	81 1d       	adc	r24, r1
 e7a:	08 95       	ret

00000e7c <__fp_inf>:
 e7c:	97 f9       	bld	r25, 7
 e7e:	9f 67       	ori	r25, 0x7F	; 127
 e80:	80 e8       	ldi	r24, 0x80	; 128
 e82:	70 e0       	ldi	r23, 0x00	; 0
 e84:	60 e0       	ldi	r22, 0x00	; 0
 e86:	08 95       	ret

00000e88 <__fp_nan>:
 e88:	9f ef       	ldi	r25, 0xFF	; 255
 e8a:	80 ec       	ldi	r24, 0xC0	; 192
 e8c:	08 95       	ret

00000e8e <__fp_pscA>:
 e8e:	00 24       	eor	r0, r0
 e90:	0a 94       	dec	r0
 e92:	16 16       	cp	r1, r22
 e94:	17 06       	cpc	r1, r23
 e96:	18 06       	cpc	r1, r24
 e98:	09 06       	cpc	r0, r25
 e9a:	08 95       	ret

00000e9c <__fp_pscB>:
 e9c:	00 24       	eor	r0, r0
 e9e:	0a 94       	dec	r0
 ea0:	12 16       	cp	r1, r18
 ea2:	13 06       	cpc	r1, r19
 ea4:	14 06       	cpc	r1, r20
 ea6:	05 06       	cpc	r0, r21
 ea8:	08 95       	ret

00000eaa <__fp_round>:
 eaa:	09 2e       	mov	r0, r25
 eac:	03 94       	inc	r0
 eae:	00 0c       	add	r0, r0
 eb0:	11 f4       	brne	.+4      	; 0xeb6 <__fp_round+0xc>
 eb2:	88 23       	and	r24, r24
 eb4:	52 f0       	brmi	.+20     	; 0xeca <__fp_round+0x20>
 eb6:	bb 0f       	add	r27, r27
 eb8:	40 f4       	brcc	.+16     	; 0xeca <__fp_round+0x20>
 eba:	bf 2b       	or	r27, r31
 ebc:	11 f4       	brne	.+4      	; 0xec2 <__fp_round+0x18>
 ebe:	60 ff       	sbrs	r22, 0
 ec0:	04 c0       	rjmp	.+8      	; 0xeca <__fp_round+0x20>
 ec2:	6f 5f       	subi	r22, 0xFF	; 255
 ec4:	7f 4f       	sbci	r23, 0xFF	; 255
 ec6:	8f 4f       	sbci	r24, 0xFF	; 255
 ec8:	9f 4f       	sbci	r25, 0xFF	; 255
 eca:	08 95       	ret

00000ecc <__fp_split3>:
 ecc:	57 fd       	sbrc	r21, 7
 ece:	90 58       	subi	r25, 0x80	; 128
 ed0:	44 0f       	add	r20, r20
 ed2:	55 1f       	adc	r21, r21
 ed4:	59 f0       	breq	.+22     	; 0xeec <__fp_splitA+0x10>
 ed6:	5f 3f       	cpi	r21, 0xFF	; 255
 ed8:	71 f0       	breq	.+28     	; 0xef6 <__fp_splitA+0x1a>
 eda:	47 95       	ror	r20

00000edc <__fp_splitA>:
 edc:	88 0f       	add	r24, r24
 ede:	97 fb       	bst	r25, 7
 ee0:	99 1f       	adc	r25, r25
 ee2:	61 f0       	breq	.+24     	; 0xefc <__fp_splitA+0x20>
 ee4:	9f 3f       	cpi	r25, 0xFF	; 255
 ee6:	79 f0       	breq	.+30     	; 0xf06 <__fp_splitA+0x2a>
 ee8:	87 95       	ror	r24
 eea:	08 95       	ret
 eec:	12 16       	cp	r1, r18
 eee:	13 06       	cpc	r1, r19
 ef0:	14 06       	cpc	r1, r20
 ef2:	55 1f       	adc	r21, r21
 ef4:	f2 cf       	rjmp	.-28     	; 0xeda <__fp_split3+0xe>
 ef6:	46 95       	lsr	r20
 ef8:	f1 df       	rcall	.-30     	; 0xedc <__fp_splitA>
 efa:	08 c0       	rjmp	.+16     	; 0xf0c <__fp_splitA+0x30>
 efc:	16 16       	cp	r1, r22
 efe:	17 06       	cpc	r1, r23
 f00:	18 06       	cpc	r1, r24
 f02:	99 1f       	adc	r25, r25
 f04:	f1 cf       	rjmp	.-30     	; 0xee8 <__fp_splitA+0xc>
 f06:	86 95       	lsr	r24
 f08:	71 05       	cpc	r23, r1
 f0a:	61 05       	cpc	r22, r1
 f0c:	08 94       	sec
 f0e:	08 95       	ret

00000f10 <__fp_zero>:
 f10:	e8 94       	clt

00000f12 <__fp_szero>:
 f12:	bb 27       	eor	r27, r27
 f14:	66 27       	eor	r22, r22
 f16:	77 27       	eor	r23, r23
 f18:	cb 01       	movw	r24, r22
 f1a:	97 f9       	bld	r25, 7
 f1c:	08 95       	ret

00000f1e <__gesf2>:
 f1e:	0e 94 1a 07 	call	0xe34	; 0xe34 <__fp_cmp>
 f22:	08 f4       	brcc	.+2      	; 0xf26 <__gesf2+0x8>
 f24:	8f ef       	ldi	r24, 0xFF	; 255
 f26:	08 95       	ret

00000f28 <__divmodhi4>:
 f28:	97 fb       	bst	r25, 7
 f2a:	07 2e       	mov	r0, r23
 f2c:	16 f4       	brtc	.+4      	; 0xf32 <__divmodhi4+0xa>
 f2e:	00 94       	com	r0
 f30:	07 d0       	rcall	.+14     	; 0xf40 <__divmodhi4_neg1>
 f32:	77 fd       	sbrc	r23, 7
 f34:	09 d0       	rcall	.+18     	; 0xf48 <__divmodhi4_neg2>
 f36:	0e 94 a8 07 	call	0xf50	; 0xf50 <__udivmodhi4>
 f3a:	07 fc       	sbrc	r0, 7
 f3c:	05 d0       	rcall	.+10     	; 0xf48 <__divmodhi4_neg2>
 f3e:	3e f4       	brtc	.+14     	; 0xf4e <__divmodhi4_exit>

00000f40 <__divmodhi4_neg1>:
 f40:	90 95       	com	r25
 f42:	81 95       	neg	r24
 f44:	9f 4f       	sbci	r25, 0xFF	; 255
 f46:	08 95       	ret

00000f48 <__divmodhi4_neg2>:
 f48:	70 95       	com	r23
 f4a:	61 95       	neg	r22
 f4c:	7f 4f       	sbci	r23, 0xFF	; 255

00000f4e <__divmodhi4_exit>:
 f4e:	08 95       	ret

00000f50 <__udivmodhi4>:
 f50:	aa 1b       	sub	r26, r26
 f52:	bb 1b       	sub	r27, r27
 f54:	51 e1       	ldi	r21, 0x11	; 17
 f56:	07 c0       	rjmp	.+14     	; 0xf66 <__udivmodhi4_ep>

00000f58 <__udivmodhi4_loop>:
 f58:	aa 1f       	adc	r26, r26
 f5a:	bb 1f       	adc	r27, r27
 f5c:	a6 17       	cp	r26, r22
 f5e:	b7 07       	cpc	r27, r23
 f60:	10 f0       	brcs	.+4      	; 0xf66 <__udivmodhi4_ep>
 f62:	a6 1b       	sub	r26, r22
 f64:	b7 0b       	sbc	r27, r23

00000f66 <__udivmodhi4_ep>:
 f66:	88 1f       	adc	r24, r24
 f68:	99 1f       	adc	r25, r25
 f6a:	5a 95       	dec	r21
 f6c:	a9 f7       	brne	.-22     	; 0xf58 <__udivmodhi4_loop>
 f6e:	80 95       	com	r24
 f70:	90 95       	com	r25
 f72:	bc 01       	movw	r22, r24
 f74:	cd 01       	movw	r24, r26
 f76:	08 95       	ret

00000f78 <__tablejump2__>:
 f78:	ee 0f       	add	r30, r30
 f7a:	ff 1f       	adc	r31, r31
 f7c:	05 90       	lpm	r0, Z+
 f7e:	f4 91       	lpm	r31, Z
 f80:	e0 2d       	mov	r30, r0
 f82:	09 94       	ijmp

00000f84 <__do_global_dtors>:
 f84:	10 e0       	ldi	r17, 0x00	; 0
 f86:	cb e2       	ldi	r28, 0x2B	; 43
 f88:	d0 e0       	ldi	r29, 0x00	; 0
 f8a:	04 c0       	rjmp	.+8      	; 0xf94 <__do_global_dtors+0x10>
 f8c:	fe 01       	movw	r30, r28
 f8e:	0e 94 bc 07 	call	0xf78	; 0xf78 <__tablejump2__>
 f92:	21 96       	adiw	r28, 0x01	; 1
 f94:	cc 32       	cpi	r28, 0x2C	; 44
 f96:	d1 07       	cpc	r29, r17
 f98:	c9 f7       	brne	.-14     	; 0xf8c <__do_global_dtors+0x8>
 f9a:	f8 94       	cli

00000f9c <__stop_program>:
 f9c:	ff cf       	rjmp	.-2      	; 0xf9c <__stop_program>
